ARM GAS  C:\Users\Bunyamin\AppData\Local\Temp\cc313q2w.s 			page 1


   1              		.cpu cortex-m4
   2              		.arch armv7e-m
   3              		.fpu fpv4-sp-d16
   4              		.eabi_attribute 27, 1
   5              		.eabi_attribute 28, 1
   6              		.eabi_attribute 20, 1
   7              		.eabi_attribute 21, 1
   8              		.eabi_attribute 23, 3
   9              		.eabi_attribute 24, 1
  10              		.eabi_attribute 25, 1
  11              		.eabi_attribute 26, 1
  12              		.eabi_attribute 30, 6
  13              		.eabi_attribute 34, 1
  14              		.eabi_attribute 18, 4
  15              		.file	"main.c"
  16              		.text
  17              	.Ltext0:
  18              		.cfi_sections	.debug_frame
  19              		.global	huart1
  20              		.section	.bss.huart1,"aw",%nobits
  21              		.align	2
  24              	huart1:
  25 0000 00000000 		.space	132
  25      00000000 
  25      00000000 
  25      00000000 
  25      00000000 
  26              		.global	defaultTaskHandle
  27              		.section	.bss.defaultTaskHandle,"aw",%nobits
  28              		.align	2
  31              	defaultTaskHandle:
  32 0000 00000000 		.space	4
  33              		.global	defaultTask_attributes
  34              		.section	.rodata
  35              		.align	2
  36              	.LC0:
  37 0000 64656661 		.ascii	"defaultTask\000"
  37      756C7454 
  37      61736B00 
  38              		.section	.rodata.defaultTask_attributes,"a"
  39              		.align	2
  42              	defaultTask_attributes:
  43 0000 00000000 		.word	.LC0
  44 0004 00000000 		.space	16
  44      00000000 
  44      00000000 
  44      00000000 
  45 0014 00020000 		.word	512
  46 0018 18000000 		.word	24
  47 001c 00000000 		.space	8
  47      00000000 
  48              		.section	.rodata
  49              		.align	2
  50              	.LC1:
  51 000c 493A2074 		.ascii	"I: test-data\000"
  51      6573742D 
  51      64617461 
ARM GAS  C:\Users\Bunyamin\AppData\Local\Temp\cc313q2w.s 			page 2


  51      00
  52 0019 000000   		.align	2
  53              	.LC2:
  54 001c 493A2064 		.ascii	"I: durum %d \012\015\000"
  54      7572756D 
  54      20256420 
  54      0A0D00
  55              		.section	.text.main,"ax",%progbits
  56              		.align	1
  57              		.global	main
  58              		.syntax unified
  59              		.thumb
  60              		.thumb_func
  62              	main:
  63              	.LFB136:
  64              		.file 1 "Core/Src/main.c"
   1:Core/Src/main.c **** /* USER CODE BEGIN Header */
   2:Core/Src/main.c **** /************************************************************************
   3:Core/Src/main.c **** *
   4:Core/Src/main.c **** * FILENAME: 	  main.c
   5:Core/Src/main.c **** * DATE: 		    28.07.2022
   6:Core/Src/main.c **** * DESCRIPTION: 	Main application entry
   7:Core/Src/main.c **** * AUTHOR: 		  Embedded Systems Bunyamin Senel
   8:Core/Src/main.c **** *
   9:Core/Src/main.c **** ************************************************************************
  10:Core/Src/main.c ****   * @attention
  11:Core/Src/main.c ****   *
  12:Core/Src/main.c ****   * Copyright (c) 2022 STMicroelectronics.
  13:Core/Src/main.c ****   * All rights reserved.
  14:Core/Src/main.c ****   *
  15:Core/Src/main.c ****   * This software is licensed under terms that can be found in the LICENSE file
  16:Core/Src/main.c ****   * in the root directory of this software component.
  17:Core/Src/main.c ****   * If no LICENSE file comes with this software, it is provided AS-IS.
  18:Core/Src/main.c ****   *
  19:Core/Src/main.c ****   ******************************************************************************
  20:Core/Src/main.c ****   */
  21:Core/Src/main.c **** /* USER CODE END Header */
  22:Core/Src/main.c **** /* Includes ------------------------------------------------------------------*/
  23:Core/Src/main.c **** #include "main.h"
  24:Core/Src/main.c **** #include "cmsis_os.h"
  25:Core/Src/main.c **** 
  26:Core/Src/main.c **** /* Private includes ----------------------------------------------------------*/
  27:Core/Src/main.c **** /* USER CODE BEGIN Includes */
  28:Core/Src/main.c **** #include "log.h"
  29:Core/Src/main.c **** /* USER CODE END Includes */
  30:Core/Src/main.c **** 
  31:Core/Src/main.c **** /* Private typedef -----------------------------------------------------------*/
  32:Core/Src/main.c **** /* USER CODE BEGIN PTD */
  33:Core/Src/main.c **** 
  34:Core/Src/main.c **** /* USER CODE END PTD */
  35:Core/Src/main.c **** 
  36:Core/Src/main.c **** /* Private define ------------------------------------------------------------*/
  37:Core/Src/main.c **** /* USER CODE BEGIN PD */
  38:Core/Src/main.c **** /* USER CODE END PD */
  39:Core/Src/main.c **** 
  40:Core/Src/main.c **** /* Private macro -------------------------------------------------------------*/
  41:Core/Src/main.c **** /* USER CODE BEGIN PM */
ARM GAS  C:\Users\Bunyamin\AppData\Local\Temp\cc313q2w.s 			page 3


  42:Core/Src/main.c **** 
  43:Core/Src/main.c **** /* USER CODE END PM */
  44:Core/Src/main.c **** 
  45:Core/Src/main.c **** /* Private variables ---------------------------------------------------------*/
  46:Core/Src/main.c ****  UART_HandleTypeDef huart1;
  47:Core/Src/main.c **** 
  48:Core/Src/main.c **** /* Definitions for defaultTask */
  49:Core/Src/main.c **** osThreadId_t defaultTaskHandle;
  50:Core/Src/main.c **** const osThreadAttr_t defaultTask_attributes = {
  51:Core/Src/main.c ****   .name = "defaultTask",
  52:Core/Src/main.c ****   .stack_size = 128 * 4,
  53:Core/Src/main.c ****   .priority = (osPriority_t) osPriorityNormal,
  54:Core/Src/main.c **** };
  55:Core/Src/main.c **** /* USER CODE BEGIN PV */
  56:Core/Src/main.c **** 
  57:Core/Src/main.c **** /* USER CODE END PV */
  58:Core/Src/main.c **** 
  59:Core/Src/main.c **** /* Private function prototypes -----------------------------------------------*/
  60:Core/Src/main.c **** void SystemClock_Config(void);
  61:Core/Src/main.c **** static void MX_GPIO_Init(void);
  62:Core/Src/main.c **** static void MX_USART1_UART_Init(void);
  63:Core/Src/main.c **** void StartDefaultTask(void *argument);
  64:Core/Src/main.c **** 
  65:Core/Src/main.c **** /* USER CODE BEGIN PFP */
  66:Core/Src/main.c **** /* USER CODE END PFP */
  67:Core/Src/main.c **** 
  68:Core/Src/main.c **** /* Private user code ---------------------------------------------------------*/
  69:Core/Src/main.c **** /* USER CODE BEGIN 0 */
  70:Core/Src/main.c **** 
  71:Core/Src/main.c **** /* USER CODE END 0 */
  72:Core/Src/main.c **** 
  73:Core/Src/main.c **** /**
  74:Core/Src/main.c ****   * @brief  The application entry point.
  75:Core/Src/main.c ****   * @retval int
  76:Core/Src/main.c ****   */
  77:Core/Src/main.c **** int main(void)
  78:Core/Src/main.c **** {
  65              		.loc 1 78 1
  66              		.cfi_startproc
  67              		@ args = 0, pretend = 0, frame = 8
  68              		@ frame_needed = 1, uses_anonymous_args = 0
  69 0000 80B5     		push	{r7, lr}
  70              	.LCFI0:
  71              		.cfi_def_cfa_offset 8
  72              		.cfi_offset 7, -8
  73              		.cfi_offset 14, -4
  74 0002 82B0     		sub	sp, sp, #8
  75              	.LCFI1:
  76              		.cfi_def_cfa_offset 16
  77 0004 00AF     		add	r7, sp, #0
  78              	.LCFI2:
  79              		.cfi_def_cfa_register 7
  79:Core/Src/main.c ****   /* USER CODE BEGIN 1 */
  80:Core/Src/main.c ****   LOG_INFO("test-data");
  80              		.loc 1 80 3
  81 0006 1649     		ldr	r1, .L3
  82 0008 0020     		movs	r0, #0
ARM GAS  C:\Users\Bunyamin\AppData\Local\Temp\cc313q2w.s 			page 4


  83 000a FFF7FEFF 		bl	SEGGER_RTT_printf
  81:Core/Src/main.c ****   /* USER CODE END 1 */
  82:Core/Src/main.c **** 
  83:Core/Src/main.c ****   /* MCU Configuration--------------------------------------------------------*/
  84:Core/Src/main.c **** 
  85:Core/Src/main.c ****   /* Reset of all peripherals, Initializes the Flash interface and the Systick. */
  86:Core/Src/main.c ****   HAL_Init();
  84              		.loc 1 86 3
  85 000e FFF7FEFF 		bl	HAL_Init
  87:Core/Src/main.c **** 
  88:Core/Src/main.c ****   /* USER CODE BEGIN Init */
  89:Core/Src/main.c **** 
  90:Core/Src/main.c ****   /* USER CODE END Init */
  91:Core/Src/main.c **** 
  92:Core/Src/main.c ****   /* Configure the system clock */
  93:Core/Src/main.c ****   SystemClock_Config();
  86              		.loc 1 93 3
  87 0012 FFF7FEFF 		bl	SystemClock_Config
  94:Core/Src/main.c **** 
  95:Core/Src/main.c ****   /* USER CODE BEGIN SysInit */
  96:Core/Src/main.c **** 
  97:Core/Src/main.c ****   /* USER CODE END SysInit */
  98:Core/Src/main.c **** 
  99:Core/Src/main.c ****   /* Initialize all configured peripherals */
 100:Core/Src/main.c ****   MX_GPIO_Init();
  88              		.loc 1 100 3
  89 0016 FFF7FEFF 		bl	MX_GPIO_Init
 101:Core/Src/main.c ****   MX_USART1_UART_Init();
  90              		.loc 1 101 3
  91 001a FFF7FEFF 		bl	MX_USART1_UART_Init
 102:Core/Src/main.c ****   /* USER CODE BEGIN 2 */
 103:Core/Src/main.c **** 
 104:Core/Src/main.c ****   /* USER CODE END 2 */
 105:Core/Src/main.c **** 
 106:Core/Src/main.c ****   /* Init scheduler */
 107:Core/Src/main.c ****   osKernelInitialize();
  92              		.loc 1 107 3
  93 001e FFF7FEFF 		bl	osKernelInitialize
 108:Core/Src/main.c **** 
 109:Core/Src/main.c ****   /* USER CODE BEGIN RTOS_MUTEX */
 110:Core/Src/main.c ****   /* add mutexes, ... */
 111:Core/Src/main.c ****   /* USER CODE END RTOS_MUTEX */
 112:Core/Src/main.c **** 
 113:Core/Src/main.c ****   /* USER CODE BEGIN RTOS_SEMAPHORES */
 114:Core/Src/main.c ****   /* add semaphores, ... */
 115:Core/Src/main.c ****   /* USER CODE END RTOS_SEMAPHORES */
 116:Core/Src/main.c **** 
 117:Core/Src/main.c ****   /* USER CODE BEGIN RTOS_TIMERS */
 118:Core/Src/main.c ****   /* start timers, add new ones, ... */
 119:Core/Src/main.c ****   /* USER CODE END RTOS_TIMERS */
 120:Core/Src/main.c **** 
 121:Core/Src/main.c ****   /* USER CODE BEGIN RTOS_QUEUES */
 122:Core/Src/main.c ****   /* add queues, ... */
 123:Core/Src/main.c ****   /* USER CODE END RTOS_QUEUES */
 124:Core/Src/main.c **** 
 125:Core/Src/main.c ****   /* Create the thread(s) */
 126:Core/Src/main.c ****   /* creation of defaultTask */
ARM GAS  C:\Users\Bunyamin\AppData\Local\Temp\cc313q2w.s 			page 5


 127:Core/Src/main.c ****   defaultTaskHandle = osThreadNew(StartDefaultTask, NULL, &defaultTask_attributes);
  94              		.loc 1 127 23
  95 0022 104A     		ldr	r2, .L3+4
  96 0024 0021     		movs	r1, #0
  97 0026 1048     		ldr	r0, .L3+8
  98 0028 FFF7FEFF 		bl	osThreadNew
  99 002c 0346     		mov	r3, r0
 100              		.loc 1 127 21
 101 002e 0F4A     		ldr	r2, .L3+12
 102 0030 1360     		str	r3, [r2]
 103              	.L2:
 104              	.LBB4:
 128:Core/Src/main.c **** 
 129:Core/Src/main.c ****   /* USER CODE BEGIN RTOS_THREADS */
 130:Core/Src/main.c ****   /* add threads, ... */
 131:Core/Src/main.c ****   /* USER CODE END RTOS_THREADS */
 132:Core/Src/main.c **** 
 133:Core/Src/main.c ****   /* USER CODE BEGIN RTOS_EVENTS */
 134:Core/Src/main.c ****   /* add events, ... */
 135:Core/Src/main.c ****   /* USER CODE END RTOS_EVENTS */
 136:Core/Src/main.c **** 
 137:Core/Src/main.c ****   /* Start scheduler */
 138:Core/Src/main.c ****   //osKernelStart();
 139:Core/Src/main.c **** 
 140:Core/Src/main.c ****   /* We should never get here as control is now taken by the scheduler */
 141:Core/Src/main.c ****   /* Infinite loop */
 142:Core/Src/main.c ****   /* USER CODE BEGIN WHILE */
 143:Core/Src/main.c ****   while (1)
 144:Core/Src/main.c ****   {
 145:Core/Src/main.c ****     /* USER CODE END WHILE */
 146:Core/Src/main.c ****     uint8_t status;
 147:Core/Src/main.c ****     status = HAL_GPIO_ReadPin(GPIOB,GPIO_PIN_10);
 105              		.loc 1 147 14 discriminator 1
 106 0032 4FF48061 		mov	r1, #1024
 107 0036 0E48     		ldr	r0, .L3+16
 108 0038 FFF7FEFF 		bl	HAL_GPIO_ReadPin
 109 003c 0346     		mov	r3, r0
 110 003e FB71     		strb	r3, [r7, #7]
 148:Core/Src/main.c ****     LOG_INFO("durum %d \n\r",!status);
 111              		.loc 1 148 5 discriminator 1
 112 0040 FB79     		ldrb	r3, [r7, #7]	@ zero_extendqisi2
 113 0042 002B     		cmp	r3, #0
 114 0044 0CBF     		ite	eq
 115 0046 0123     		moveq	r3, #1
 116 0048 0023     		movne	r3, #0
 117 004a DBB2     		uxtb	r3, r3
 118 004c 1A46     		mov	r2, r3
 119 004e 0949     		ldr	r1, .L3+20
 120 0050 0020     		movs	r0, #0
 121 0052 FFF7FEFF 		bl	SEGGER_RTT_printf
 149:Core/Src/main.c ****     HAL_Delay(250);
 122              		.loc 1 149 5 discriminator 1
 123 0056 FA20     		movs	r0, #250
 124 0058 FFF7FEFF 		bl	HAL_Delay
 125              	.LBE4:
 144:Core/Src/main.c ****     /* USER CODE END WHILE */
 126              		.loc 1 144 3 discriminator 1
ARM GAS  C:\Users\Bunyamin\AppData\Local\Temp\cc313q2w.s 			page 6


 127 005c E9E7     		b	.L2
 128              	.L4:
 129 005e 00BF     		.align	2
 130              	.L3:
 131 0060 0C000000 		.word	.LC1
 132 0064 00000000 		.word	defaultTask_attributes
 133 0068 00000000 		.word	StartDefaultTask
 134 006c 00000000 		.word	defaultTaskHandle
 135 0070 00040048 		.word	1207960576
 136 0074 1C000000 		.word	.LC2
 137              		.cfi_endproc
 138              	.LFE136:
 140              		.section	.text.SystemClock_Config,"ax",%progbits
 141              		.align	1
 142              		.global	SystemClock_Config
 143              		.syntax unified
 144              		.thumb
 145              		.thumb_func
 147              	SystemClock_Config:
 148              	.LFB137:
 150:Core/Src/main.c **** 
 151:Core/Src/main.c ****     /* USER CODE BEGIN 3 */
 152:Core/Src/main.c ****   }
 153:Core/Src/main.c ****   /* USER CODE END 3 */
 154:Core/Src/main.c **** }
 155:Core/Src/main.c **** 
 156:Core/Src/main.c **** /**
 157:Core/Src/main.c ****   * @brief System Clock Configuration
 158:Core/Src/main.c ****   * @retval None
 159:Core/Src/main.c ****   */
 160:Core/Src/main.c **** void SystemClock_Config(void)
 161:Core/Src/main.c **** {
 149              		.loc 1 161 1
 150              		.cfi_startproc
 151              		@ args = 0, pretend = 0, frame = 88
 152              		@ frame_needed = 1, uses_anonymous_args = 0
 153 0000 80B5     		push	{r7, lr}
 154              	.LCFI3:
 155              		.cfi_def_cfa_offset 8
 156              		.cfi_offset 7, -8
 157              		.cfi_offset 14, -4
 158 0002 96B0     		sub	sp, sp, #88
 159              	.LCFI4:
 160              		.cfi_def_cfa_offset 96
 161 0004 00AF     		add	r7, sp, #0
 162              	.LCFI5:
 163              		.cfi_def_cfa_register 7
 162:Core/Src/main.c ****   RCC_OscInitTypeDef RCC_OscInitStruct = {0};
 164              		.loc 1 162 22
 165 0006 07F11403 		add	r3, r7, #20
 166 000a 4422     		movs	r2, #68
 167 000c 0021     		movs	r1, #0
 168 000e 1846     		mov	r0, r3
 169 0010 FFF7FEFF 		bl	memset
 163:Core/Src/main.c ****   RCC_ClkInitTypeDef RCC_ClkInitStruct = {0};
 170              		.loc 1 163 22
 171 0014 3B46     		mov	r3, r7
ARM GAS  C:\Users\Bunyamin\AppData\Local\Temp\cc313q2w.s 			page 7


 172 0016 0022     		movs	r2, #0
 173 0018 1A60     		str	r2, [r3]
 174 001a 5A60     		str	r2, [r3, #4]
 175 001c 9A60     		str	r2, [r3, #8]
 176 001e DA60     		str	r2, [r3, #12]
 177 0020 1A61     		str	r2, [r3, #16]
 164:Core/Src/main.c **** 
 165:Core/Src/main.c ****   /** Configure the main internal regulator output voltage
 166:Core/Src/main.c ****   */
 167:Core/Src/main.c ****   if (HAL_PWREx_ControlVoltageScaling(PWR_REGULATOR_VOLTAGE_SCALE1) != HAL_OK)
 178              		.loc 1 167 7
 179 0022 4FF40070 		mov	r0, #512
 180 0026 FFF7FEFF 		bl	HAL_PWREx_ControlVoltageScaling
 181 002a 0346     		mov	r3, r0
 182              		.loc 1 167 6
 183 002c 002B     		cmp	r3, #0
 184 002e 01D0     		beq	.L6
 168:Core/Src/main.c ****   {
 169:Core/Src/main.c ****     Error_Handler();
 185              		.loc 1 169 5
 186 0030 FFF7FEFF 		bl	Error_Handler
 187              	.L6:
 170:Core/Src/main.c ****   }
 171:Core/Src/main.c **** 
 172:Core/Src/main.c ****   /** Initializes the RCC Oscillators according to the specified parameters
 173:Core/Src/main.c ****   * in the RCC_OscInitTypeDef structure.
 174:Core/Src/main.c ****   */
 175:Core/Src/main.c ****   RCC_OscInitStruct.OscillatorType = RCC_OSCILLATORTYPE_MSI;
 188              		.loc 1 175 36
 189 0034 1023     		movs	r3, #16
 190 0036 7B61     		str	r3, [r7, #20]
 176:Core/Src/main.c ****   RCC_OscInitStruct.MSIState = RCC_MSI_ON;
 191              		.loc 1 176 30
 192 0038 0123     		movs	r3, #1
 193 003a FB62     		str	r3, [r7, #44]
 177:Core/Src/main.c ****   RCC_OscInitStruct.MSICalibrationValue = 0;
 194              		.loc 1 177 41
 195 003c 0023     		movs	r3, #0
 196 003e 3B63     		str	r3, [r7, #48]
 178:Core/Src/main.c ****   RCC_OscInitStruct.MSIClockRange = RCC_MSIRANGE_6;
 197              		.loc 1 178 35
 198 0040 6023     		movs	r3, #96
 199 0042 7B63     		str	r3, [r7, #52]
 179:Core/Src/main.c ****   RCC_OscInitStruct.PLL.PLLState = RCC_PLL_ON;
 200              		.loc 1 179 34
 201 0044 0223     		movs	r3, #2
 202 0046 FB63     		str	r3, [r7, #60]
 180:Core/Src/main.c ****   RCC_OscInitStruct.PLL.PLLSource = RCC_PLLSOURCE_MSI;
 203              		.loc 1 180 35
 204 0048 0123     		movs	r3, #1
 205 004a 3B64     		str	r3, [r7, #64]
 181:Core/Src/main.c ****   RCC_OscInitStruct.PLL.PLLM = 1;
 206              		.loc 1 181 30
 207 004c 0123     		movs	r3, #1
 208 004e 7B64     		str	r3, [r7, #68]
 182:Core/Src/main.c ****   RCC_OscInitStruct.PLL.PLLN = 40;
 209              		.loc 1 182 30
ARM GAS  C:\Users\Bunyamin\AppData\Local\Temp\cc313q2w.s 			page 8


 210 0050 2823     		movs	r3, #40
 211 0052 BB64     		str	r3, [r7, #72]
 183:Core/Src/main.c ****   RCC_OscInitStruct.PLL.PLLP = RCC_PLLP_DIV7;
 212              		.loc 1 183 30
 213 0054 0723     		movs	r3, #7
 214 0056 FB64     		str	r3, [r7, #76]
 184:Core/Src/main.c ****   RCC_OscInitStruct.PLL.PLLQ = RCC_PLLQ_DIV2;
 215              		.loc 1 184 30
 216 0058 0223     		movs	r3, #2
 217 005a 3B65     		str	r3, [r7, #80]
 185:Core/Src/main.c ****   RCC_OscInitStruct.PLL.PLLR = RCC_PLLR_DIV2;
 218              		.loc 1 185 30
 219 005c 0223     		movs	r3, #2
 220 005e 7B65     		str	r3, [r7, #84]
 186:Core/Src/main.c ****   if (HAL_RCC_OscConfig(&RCC_OscInitStruct) != HAL_OK)
 221              		.loc 1 186 7
 222 0060 07F11403 		add	r3, r7, #20
 223 0064 1846     		mov	r0, r3
 224 0066 FFF7FEFF 		bl	HAL_RCC_OscConfig
 225 006a 0346     		mov	r3, r0
 226              		.loc 1 186 6
 227 006c 002B     		cmp	r3, #0
 228 006e 01D0     		beq	.L7
 187:Core/Src/main.c ****   {
 188:Core/Src/main.c ****     Error_Handler();
 229              		.loc 1 188 5
 230 0070 FFF7FEFF 		bl	Error_Handler
 231              	.L7:
 189:Core/Src/main.c ****   }
 190:Core/Src/main.c **** 
 191:Core/Src/main.c ****   /** Initializes the CPU, AHB and APB buses clocks
 192:Core/Src/main.c ****   */
 193:Core/Src/main.c ****   RCC_ClkInitStruct.ClockType = RCC_CLOCKTYPE_HCLK|RCC_CLOCKTYPE_SYSCLK
 232              		.loc 1 193 31
 233 0074 0F23     		movs	r3, #15
 234 0076 3B60     		str	r3, [r7]
 194:Core/Src/main.c ****                               |RCC_CLOCKTYPE_PCLK1|RCC_CLOCKTYPE_PCLK2;
 195:Core/Src/main.c ****   RCC_ClkInitStruct.SYSCLKSource = RCC_SYSCLKSOURCE_PLLCLK;
 235              		.loc 1 195 34
 236 0078 0323     		movs	r3, #3
 237 007a 7B60     		str	r3, [r7, #4]
 196:Core/Src/main.c ****   RCC_ClkInitStruct.AHBCLKDivider = RCC_SYSCLK_DIV1;
 238              		.loc 1 196 35
 239 007c 0023     		movs	r3, #0
 240 007e BB60     		str	r3, [r7, #8]
 197:Core/Src/main.c ****   RCC_ClkInitStruct.APB1CLKDivider = RCC_HCLK_DIV1;
 241              		.loc 1 197 36
 242 0080 0023     		movs	r3, #0
 243 0082 FB60     		str	r3, [r7, #12]
 198:Core/Src/main.c ****   RCC_ClkInitStruct.APB2CLKDivider = RCC_HCLK_DIV1;
 244              		.loc 1 198 36
 245 0084 0023     		movs	r3, #0
 246 0086 3B61     		str	r3, [r7, #16]
 199:Core/Src/main.c **** 
 200:Core/Src/main.c ****   if (HAL_RCC_ClockConfig(&RCC_ClkInitStruct, FLASH_LATENCY_4) != HAL_OK)
 247              		.loc 1 200 7
 248 0088 3B46     		mov	r3, r7
ARM GAS  C:\Users\Bunyamin\AppData\Local\Temp\cc313q2w.s 			page 9


 249 008a 0421     		movs	r1, #4
 250 008c 1846     		mov	r0, r3
 251 008e FFF7FEFF 		bl	HAL_RCC_ClockConfig
 252 0092 0346     		mov	r3, r0
 253              		.loc 1 200 6
 254 0094 002B     		cmp	r3, #0
 255 0096 01D0     		beq	.L9
 201:Core/Src/main.c ****   {
 202:Core/Src/main.c ****     Error_Handler();
 256              		.loc 1 202 5
 257 0098 FFF7FEFF 		bl	Error_Handler
 258              	.L9:
 203:Core/Src/main.c ****   }
 204:Core/Src/main.c **** }
 259              		.loc 1 204 1
 260 009c 00BF     		nop
 261 009e 5837     		adds	r7, r7, #88
 262              	.LCFI6:
 263              		.cfi_def_cfa_offset 8
 264 00a0 BD46     		mov	sp, r7
 265              	.LCFI7:
 266              		.cfi_def_cfa_register 13
 267              		@ sp needed
 268 00a2 80BD     		pop	{r7, pc}
 269              		.cfi_endproc
 270              	.LFE137:
 272              		.section	.text.MX_USART1_UART_Init,"ax",%progbits
 273              		.align	1
 274              		.syntax unified
 275              		.thumb
 276              		.thumb_func
 278              	MX_USART1_UART_Init:
 279              	.LFB138:
 205:Core/Src/main.c **** 
 206:Core/Src/main.c **** /**
 207:Core/Src/main.c ****   * @brief USART1 Initialization Function
 208:Core/Src/main.c ****   * @param None
 209:Core/Src/main.c ****   * @retval None
 210:Core/Src/main.c ****   */
 211:Core/Src/main.c **** static void MX_USART1_UART_Init(void)
 212:Core/Src/main.c **** {
 280              		.loc 1 212 1
 281              		.cfi_startproc
 282              		@ args = 0, pretend = 0, frame = 0
 283              		@ frame_needed = 1, uses_anonymous_args = 0
 284 0000 80B5     		push	{r7, lr}
 285              	.LCFI8:
 286              		.cfi_def_cfa_offset 8
 287              		.cfi_offset 7, -8
 288              		.cfi_offset 14, -4
 289 0002 00AF     		add	r7, sp, #0
 290              	.LCFI9:
 291              		.cfi_def_cfa_register 7
 213:Core/Src/main.c **** 
 214:Core/Src/main.c ****   /* USER CODE BEGIN USART1_Init 0 */
 215:Core/Src/main.c **** 
 216:Core/Src/main.c ****   /* USER CODE END USART1_Init 0 */
ARM GAS  C:\Users\Bunyamin\AppData\Local\Temp\cc313q2w.s 			page 10


 217:Core/Src/main.c **** 
 218:Core/Src/main.c ****   /* USER CODE BEGIN USART1_Init 1 */
 219:Core/Src/main.c **** 
 220:Core/Src/main.c ****   /* USER CODE END USART1_Init 1 */
 221:Core/Src/main.c ****   huart1.Instance = USART1;
 292              		.loc 1 221 19
 293 0004 144B     		ldr	r3, .L13
 294 0006 154A     		ldr	r2, .L13+4
 295 0008 1A60     		str	r2, [r3]
 222:Core/Src/main.c ****   huart1.Init.BaudRate = 115200;
 296              		.loc 1 222 24
 297 000a 134B     		ldr	r3, .L13
 298 000c 4FF4E132 		mov	r2, #115200
 299 0010 5A60     		str	r2, [r3, #4]
 223:Core/Src/main.c ****   huart1.Init.WordLength = UART_WORDLENGTH_8B;
 300              		.loc 1 223 26
 301 0012 114B     		ldr	r3, .L13
 302 0014 0022     		movs	r2, #0
 303 0016 9A60     		str	r2, [r3, #8]
 224:Core/Src/main.c ****   huart1.Init.StopBits = UART_STOPBITS_1;
 304              		.loc 1 224 24
 305 0018 0F4B     		ldr	r3, .L13
 306 001a 0022     		movs	r2, #0
 307 001c DA60     		str	r2, [r3, #12]
 225:Core/Src/main.c ****   huart1.Init.Parity = UART_PARITY_NONE;
 308              		.loc 1 225 22
 309 001e 0E4B     		ldr	r3, .L13
 310 0020 0022     		movs	r2, #0
 311 0022 1A61     		str	r2, [r3, #16]
 226:Core/Src/main.c ****   huart1.Init.Mode = UART_MODE_TX_RX;
 312              		.loc 1 226 20
 313 0024 0C4B     		ldr	r3, .L13
 314 0026 0C22     		movs	r2, #12
 315 0028 5A61     		str	r2, [r3, #20]
 227:Core/Src/main.c ****   huart1.Init.HwFlowCtl = UART_HWCONTROL_NONE;
 316              		.loc 1 227 25
 317 002a 0B4B     		ldr	r3, .L13
 318 002c 0022     		movs	r2, #0
 319 002e 9A61     		str	r2, [r3, #24]
 228:Core/Src/main.c ****   huart1.Init.OverSampling = UART_OVERSAMPLING_16;
 320              		.loc 1 228 28
 321 0030 094B     		ldr	r3, .L13
 322 0032 0022     		movs	r2, #0
 323 0034 DA61     		str	r2, [r3, #28]
 229:Core/Src/main.c ****   huart1.Init.OneBitSampling = UART_ONE_BIT_SAMPLE_DISABLE;
 324              		.loc 1 229 30
 325 0036 084B     		ldr	r3, .L13
 326 0038 0022     		movs	r2, #0
 327 003a 1A62     		str	r2, [r3, #32]
 230:Core/Src/main.c ****   huart1.AdvancedInit.AdvFeatureInit = UART_ADVFEATURE_NO_INIT;
 328              		.loc 1 230 38
 329 003c 064B     		ldr	r3, .L13
 330 003e 0022     		movs	r2, #0
 331 0040 5A62     		str	r2, [r3, #36]
 231:Core/Src/main.c ****   if (HAL_UART_Init(&huart1) != HAL_OK)
 332              		.loc 1 231 7
 333 0042 0548     		ldr	r0, .L13
ARM GAS  C:\Users\Bunyamin\AppData\Local\Temp\cc313q2w.s 			page 11


 334 0044 FFF7FEFF 		bl	HAL_UART_Init
 335 0048 0346     		mov	r3, r0
 336              		.loc 1 231 6
 337 004a 002B     		cmp	r3, #0
 338 004c 01D0     		beq	.L12
 232:Core/Src/main.c ****   {
 233:Core/Src/main.c ****     Error_Handler();
 339              		.loc 1 233 5
 340 004e FFF7FEFF 		bl	Error_Handler
 341              	.L12:
 234:Core/Src/main.c ****   }
 235:Core/Src/main.c ****   /* USER CODE BEGIN USART1_Init 2 */
 236:Core/Src/main.c **** 
 237:Core/Src/main.c ****   /* USER CODE END USART1_Init 2 */
 238:Core/Src/main.c **** 
 239:Core/Src/main.c **** }
 342              		.loc 1 239 1
 343 0052 00BF     		nop
 344 0054 80BD     		pop	{r7, pc}
 345              	.L14:
 346 0056 00BF     		.align	2
 347              	.L13:
 348 0058 00000000 		.word	huart1
 349 005c 00380140 		.word	1073821696
 350              		.cfi_endproc
 351              	.LFE138:
 353              		.section	.text.MX_GPIO_Init,"ax",%progbits
 354              		.align	1
 355              		.syntax unified
 356              		.thumb
 357              		.thumb_func
 359              	MX_GPIO_Init:
 360              	.LFB139:
 240:Core/Src/main.c **** 
 241:Core/Src/main.c **** /**
 242:Core/Src/main.c ****   * @brief GPIO Initialization Function
 243:Core/Src/main.c ****   * @param None
 244:Core/Src/main.c ****   * @retval None
 245:Core/Src/main.c ****   */
 246:Core/Src/main.c **** static void MX_GPIO_Init(void)
 247:Core/Src/main.c **** {
 361              		.loc 1 247 1
 362              		.cfi_startproc
 363              		@ args = 0, pretend = 0, frame = 32
 364              		@ frame_needed = 1, uses_anonymous_args = 0
 365 0000 80B5     		push	{r7, lr}
 366              	.LCFI10:
 367              		.cfi_def_cfa_offset 8
 368              		.cfi_offset 7, -8
 369              		.cfi_offset 14, -4
 370 0002 88B0     		sub	sp, sp, #32
 371              	.LCFI11:
 372              		.cfi_def_cfa_offset 40
 373 0004 00AF     		add	r7, sp, #0
 374              	.LCFI12:
 375              		.cfi_def_cfa_register 7
 248:Core/Src/main.c ****   GPIO_InitTypeDef GPIO_InitStruct = {0};
ARM GAS  C:\Users\Bunyamin\AppData\Local\Temp\cc313q2w.s 			page 12


 376              		.loc 1 248 20
 377 0006 07F10C03 		add	r3, r7, #12
 378 000a 0022     		movs	r2, #0
 379 000c 1A60     		str	r2, [r3]
 380 000e 5A60     		str	r2, [r3, #4]
 381 0010 9A60     		str	r2, [r3, #8]
 382 0012 DA60     		str	r2, [r3, #12]
 383 0014 1A61     		str	r2, [r3, #16]
 384              	.LBB5:
 249:Core/Src/main.c **** 
 250:Core/Src/main.c ****   /* GPIO Ports Clock Enable */
 251:Core/Src/main.c ****   __HAL_RCC_GPIOB_CLK_ENABLE();
 385              		.loc 1 251 3
 386 0016 194B     		ldr	r3, .L16
 387 0018 DB6C     		ldr	r3, [r3, #76]
 388 001a 184A     		ldr	r2, .L16
 389 001c 43F00203 		orr	r3, r3, #2
 390 0020 D364     		str	r3, [r2, #76]
 391 0022 164B     		ldr	r3, .L16
 392 0024 DB6C     		ldr	r3, [r3, #76]
 393 0026 03F00203 		and	r3, r3, #2
 394 002a BB60     		str	r3, [r7, #8]
 395 002c BB68     		ldr	r3, [r7, #8]
 396              	.LBE5:
 397              	.LBB6:
 252:Core/Src/main.c ****   __HAL_RCC_GPIOA_CLK_ENABLE();
 398              		.loc 1 252 3
 399 002e 134B     		ldr	r3, .L16
 400 0030 DB6C     		ldr	r3, [r3, #76]
 401 0032 124A     		ldr	r2, .L16
 402 0034 43F00103 		orr	r3, r3, #1
 403 0038 D364     		str	r3, [r2, #76]
 404 003a 104B     		ldr	r3, .L16
 405 003c DB6C     		ldr	r3, [r3, #76]
 406 003e 03F00103 		and	r3, r3, #1
 407 0042 7B60     		str	r3, [r7, #4]
 408 0044 7B68     		ldr	r3, [r7, #4]
 409              	.LBE6:
 253:Core/Src/main.c **** 
 254:Core/Src/main.c ****   /*Configure GPIO pin : PB10 */
 255:Core/Src/main.c ****   GPIO_InitStruct.Pin = GPIO_PIN_10;
 410              		.loc 1 255 23
 411 0046 4FF48063 		mov	r3, #1024
 412 004a FB60     		str	r3, [r7, #12]
 256:Core/Src/main.c ****   GPIO_InitStruct.Mode = GPIO_MODE_IT_RISING;
 413              		.loc 1 256 24
 414 004c 4FF48813 		mov	r3, #1114112
 415 0050 3B61     		str	r3, [r7, #16]
 257:Core/Src/main.c ****   GPIO_InitStruct.Pull = GPIO_NOPULL;
 416              		.loc 1 257 24
 417 0052 0023     		movs	r3, #0
 418 0054 7B61     		str	r3, [r7, #20]
 258:Core/Src/main.c ****   HAL_GPIO_Init(GPIOB, &GPIO_InitStruct);
 419              		.loc 1 258 3
 420 0056 07F10C03 		add	r3, r7, #12
 421 005a 1946     		mov	r1, r3
 422 005c 0848     		ldr	r0, .L16+4
ARM GAS  C:\Users\Bunyamin\AppData\Local\Temp\cc313q2w.s 			page 13


 423 005e FFF7FEFF 		bl	HAL_GPIO_Init
 259:Core/Src/main.c **** 
 260:Core/Src/main.c ****   /* EXTI interrupt init*/
 261:Core/Src/main.c ****   HAL_NVIC_SetPriority(EXTI15_10_IRQn, 5, 0);
 424              		.loc 1 261 3
 425 0062 0022     		movs	r2, #0
 426 0064 0521     		movs	r1, #5
 427 0066 2820     		movs	r0, #40
 428 0068 FFF7FEFF 		bl	HAL_NVIC_SetPriority
 262:Core/Src/main.c ****   HAL_NVIC_EnableIRQ(EXTI15_10_IRQn);
 429              		.loc 1 262 3
 430 006c 2820     		movs	r0, #40
 431 006e FFF7FEFF 		bl	HAL_NVIC_EnableIRQ
 263:Core/Src/main.c **** 
 264:Core/Src/main.c **** }
 432              		.loc 1 264 1
 433 0072 00BF     		nop
 434 0074 2037     		adds	r7, r7, #32
 435              	.LCFI13:
 436              		.cfi_def_cfa_offset 8
 437 0076 BD46     		mov	sp, r7
 438              	.LCFI14:
 439              		.cfi_def_cfa_register 13
 440              		@ sp needed
 441 0078 80BD     		pop	{r7, pc}
 442              	.L17:
 443 007a 00BF     		.align	2
 444              	.L16:
 445 007c 00100240 		.word	1073876992
 446 0080 00040048 		.word	1207960576
 447              		.cfi_endproc
 448              	.LFE139:
 450              		.section	.text.StartDefaultTask,"ax",%progbits
 451              		.align	1
 452              		.global	StartDefaultTask
 453              		.syntax unified
 454              		.thumb
 455              		.thumb_func
 457              	StartDefaultTask:
 458              	.LFB140:
 265:Core/Src/main.c **** 
 266:Core/Src/main.c **** /* USER CODE BEGIN 4 */
 267:Core/Src/main.c **** 
 268:Core/Src/main.c **** /* USER CODE END 4 */
 269:Core/Src/main.c **** 
 270:Core/Src/main.c **** /* USER CODE BEGIN Header_StartDefaultTask */
 271:Core/Src/main.c **** /**
 272:Core/Src/main.c ****   * @brief  Function implementing the defaultTask thread.
 273:Core/Src/main.c ****   * @param  argument: Not used
 274:Core/Src/main.c ****   * @retval None
 275:Core/Src/main.c ****   */
 276:Core/Src/main.c **** /* USER CODE END Header_StartDefaultTask */
 277:Core/Src/main.c **** void StartDefaultTask(void *argument)
 278:Core/Src/main.c **** {
 459              		.loc 1 278 1
 460              		.cfi_startproc
 461              		@ args = 0, pretend = 0, frame = 8
ARM GAS  C:\Users\Bunyamin\AppData\Local\Temp\cc313q2w.s 			page 14


 462              		@ frame_needed = 1, uses_anonymous_args = 0
 463 0000 80B5     		push	{r7, lr}
 464              	.LCFI15:
 465              		.cfi_def_cfa_offset 8
 466              		.cfi_offset 7, -8
 467              		.cfi_offset 14, -4
 468 0002 82B0     		sub	sp, sp, #8
 469              	.LCFI16:
 470              		.cfi_def_cfa_offset 16
 471 0004 00AF     		add	r7, sp, #0
 472              	.LCFI17:
 473              		.cfi_def_cfa_register 7
 474 0006 7860     		str	r0, [r7, #4]
 475              	.L19:
 279:Core/Src/main.c ****   /* USER CODE BEGIN 5 */
 280:Core/Src/main.c ****   /* Infinite loop */
 281:Core/Src/main.c ****   for(;;)
 282:Core/Src/main.c ****   {
 283:Core/Src/main.c ****     osDelay(1);
 476              		.loc 1 283 5 discriminator 1
 477 0008 0120     		movs	r0, #1
 478 000a FFF7FEFF 		bl	osDelay
 479 000e FBE7     		b	.L19
 480              		.cfi_endproc
 481              	.LFE140:
 483              		.section	.text.HAL_TIM_PeriodElapsedCallback,"ax",%progbits
 484              		.align	1
 485              		.global	HAL_TIM_PeriodElapsedCallback
 486              		.syntax unified
 487              		.thumb
 488              		.thumb_func
 490              	HAL_TIM_PeriodElapsedCallback:
 491              	.LFB141:
 284:Core/Src/main.c ****   }
 285:Core/Src/main.c ****   /* USER CODE END 5 */
 286:Core/Src/main.c **** }
 287:Core/Src/main.c **** 
 288:Core/Src/main.c **** /**
 289:Core/Src/main.c ****   * @brief  Period elapsed callback in non blocking mode
 290:Core/Src/main.c ****   * @note   This function is called  when TIM7 interrupt took place, inside
 291:Core/Src/main.c ****   * HAL_TIM_IRQHandler(). It makes a direct call to HAL_IncTick() to increment
 292:Core/Src/main.c ****   * a global variable "uwTick" used as application time base.
 293:Core/Src/main.c ****   * @param  htim : TIM handle
 294:Core/Src/main.c ****   * @retval None
 295:Core/Src/main.c ****   */
 296:Core/Src/main.c **** void HAL_TIM_PeriodElapsedCallback(TIM_HandleTypeDef *htim)
 297:Core/Src/main.c **** {
 492              		.loc 1 297 1
 493              		.cfi_startproc
 494              		@ args = 0, pretend = 0, frame = 8
 495              		@ frame_needed = 1, uses_anonymous_args = 0
 496 0000 80B5     		push	{r7, lr}
 497              	.LCFI18:
 498              		.cfi_def_cfa_offset 8
 499              		.cfi_offset 7, -8
 500              		.cfi_offset 14, -4
 501 0002 82B0     		sub	sp, sp, #8
ARM GAS  C:\Users\Bunyamin\AppData\Local\Temp\cc313q2w.s 			page 15


 502              	.LCFI19:
 503              		.cfi_def_cfa_offset 16
 504 0004 00AF     		add	r7, sp, #0
 505              	.LCFI20:
 506              		.cfi_def_cfa_register 7
 507 0006 7860     		str	r0, [r7, #4]
 298:Core/Src/main.c ****   /* USER CODE BEGIN Callback 0 */
 299:Core/Src/main.c **** 
 300:Core/Src/main.c ****   /* USER CODE END Callback 0 */
 301:Core/Src/main.c ****   if (htim->Instance == TIM7) {
 508              		.loc 1 301 11
 509 0008 7B68     		ldr	r3, [r7, #4]
 510 000a 1B68     		ldr	r3, [r3]
 511              		.loc 1 301 6
 512 000c 044A     		ldr	r2, .L23
 513 000e 9342     		cmp	r3, r2
 514 0010 01D1     		bne	.L22
 302:Core/Src/main.c ****     HAL_IncTick();
 515              		.loc 1 302 5
 516 0012 FFF7FEFF 		bl	HAL_IncTick
 517              	.L22:
 303:Core/Src/main.c ****   }
 304:Core/Src/main.c ****   /* USER CODE BEGIN Callback 1 */
 305:Core/Src/main.c **** 
 306:Core/Src/main.c ****   /* USER CODE END Callback 1 */
 307:Core/Src/main.c **** }
 518              		.loc 1 307 1
 519 0016 00BF     		nop
 520 0018 0837     		adds	r7, r7, #8
 521              	.LCFI21:
 522              		.cfi_def_cfa_offset 8
 523 001a BD46     		mov	sp, r7
 524              	.LCFI22:
 525              		.cfi_def_cfa_register 13
 526              		@ sp needed
 527 001c 80BD     		pop	{r7, pc}
 528              	.L24:
 529 001e 00BF     		.align	2
 530              	.L23:
 531 0020 00140040 		.word	1073746944
 532              		.cfi_endproc
 533              	.LFE141:
 535              		.section	.text.Error_Handler,"ax",%progbits
 536              		.align	1
 537              		.global	Error_Handler
 538              		.syntax unified
 539              		.thumb
 540              		.thumb_func
 542              	Error_Handler:
 543              	.LFB142:
 308:Core/Src/main.c **** 
 309:Core/Src/main.c **** /**
 310:Core/Src/main.c ****   * @brief  This function is executed in case of error occurrence.
 311:Core/Src/main.c ****   * @retval None
 312:Core/Src/main.c ****   */
 313:Core/Src/main.c **** void Error_Handler(void)
 314:Core/Src/main.c **** {
ARM GAS  C:\Users\Bunyamin\AppData\Local\Temp\cc313q2w.s 			page 16


 544              		.loc 1 314 1
 545              		.cfi_startproc
 546              		@ args = 0, pretend = 0, frame = 0
 547              		@ frame_needed = 1, uses_anonymous_args = 0
 548              		@ link register save eliminated.
 549 0000 80B4     		push	{r7}
 550              	.LCFI23:
 551              		.cfi_def_cfa_offset 4
 552              		.cfi_offset 7, -4
 553 0002 00AF     		add	r7, sp, #0
 554              	.LCFI24:
 555              		.cfi_def_cfa_register 7
 556              	.LBB7:
 557              	.LBB8:
 558              		.file 2 "Drivers/CMSIS/Include/cmsis_gcc.h"
   1:Drivers/CMSIS/Include/cmsis_gcc.h **** /**************************************************************************//**
   2:Drivers/CMSIS/Include/cmsis_gcc.h ****  * @file     cmsis_gcc.h
   3:Drivers/CMSIS/Include/cmsis_gcc.h ****  * @brief    CMSIS compiler GCC header file
   4:Drivers/CMSIS/Include/cmsis_gcc.h ****  * @version  V5.2.0
   5:Drivers/CMSIS/Include/cmsis_gcc.h ****  * @date     08. May 2019
   6:Drivers/CMSIS/Include/cmsis_gcc.h ****  ******************************************************************************/
   7:Drivers/CMSIS/Include/cmsis_gcc.h **** /*
   8:Drivers/CMSIS/Include/cmsis_gcc.h ****  * Copyright (c) 2009-2019 Arm Limited. All rights reserved.
   9:Drivers/CMSIS/Include/cmsis_gcc.h ****  *
  10:Drivers/CMSIS/Include/cmsis_gcc.h ****  * SPDX-License-Identifier: Apache-2.0
  11:Drivers/CMSIS/Include/cmsis_gcc.h ****  *
  12:Drivers/CMSIS/Include/cmsis_gcc.h ****  * Licensed under the Apache License, Version 2.0 (the License); you may
  13:Drivers/CMSIS/Include/cmsis_gcc.h ****  * not use this file except in compliance with the License.
  14:Drivers/CMSIS/Include/cmsis_gcc.h ****  * You may obtain a copy of the License at
  15:Drivers/CMSIS/Include/cmsis_gcc.h ****  *
  16:Drivers/CMSIS/Include/cmsis_gcc.h ****  * www.apache.org/licenses/LICENSE-2.0
  17:Drivers/CMSIS/Include/cmsis_gcc.h ****  *
  18:Drivers/CMSIS/Include/cmsis_gcc.h ****  * Unless required by applicable law or agreed to in writing, software
  19:Drivers/CMSIS/Include/cmsis_gcc.h ****  * distributed under the License is distributed on an AS IS BASIS, WITHOUT
  20:Drivers/CMSIS/Include/cmsis_gcc.h ****  * WARRANTIES OR CONDITIONS OF ANY KIND, either express or implied.
  21:Drivers/CMSIS/Include/cmsis_gcc.h ****  * See the License for the specific language governing permissions and
  22:Drivers/CMSIS/Include/cmsis_gcc.h ****  * limitations under the License.
  23:Drivers/CMSIS/Include/cmsis_gcc.h ****  */
  24:Drivers/CMSIS/Include/cmsis_gcc.h **** 
  25:Drivers/CMSIS/Include/cmsis_gcc.h **** #ifndef __CMSIS_GCC_H
  26:Drivers/CMSIS/Include/cmsis_gcc.h **** #define __CMSIS_GCC_H
  27:Drivers/CMSIS/Include/cmsis_gcc.h **** 
  28:Drivers/CMSIS/Include/cmsis_gcc.h **** /* ignore some GCC warnings */
  29:Drivers/CMSIS/Include/cmsis_gcc.h **** #pragma GCC diagnostic push
  30:Drivers/CMSIS/Include/cmsis_gcc.h **** #pragma GCC diagnostic ignored "-Wsign-conversion"
  31:Drivers/CMSIS/Include/cmsis_gcc.h **** #pragma GCC diagnostic ignored "-Wconversion"
  32:Drivers/CMSIS/Include/cmsis_gcc.h **** #pragma GCC diagnostic ignored "-Wunused-parameter"
  33:Drivers/CMSIS/Include/cmsis_gcc.h **** 
  34:Drivers/CMSIS/Include/cmsis_gcc.h **** /* Fallback for __has_builtin */
  35:Drivers/CMSIS/Include/cmsis_gcc.h **** #ifndef __has_builtin
  36:Drivers/CMSIS/Include/cmsis_gcc.h ****   #define __has_builtin(x) (0)
  37:Drivers/CMSIS/Include/cmsis_gcc.h **** #endif
  38:Drivers/CMSIS/Include/cmsis_gcc.h **** 
  39:Drivers/CMSIS/Include/cmsis_gcc.h **** /* CMSIS compiler specific defines */
  40:Drivers/CMSIS/Include/cmsis_gcc.h **** #ifndef   __ASM
  41:Drivers/CMSIS/Include/cmsis_gcc.h ****   #define __ASM                                  __asm
  42:Drivers/CMSIS/Include/cmsis_gcc.h **** #endif
ARM GAS  C:\Users\Bunyamin\AppData\Local\Temp\cc313q2w.s 			page 17


  43:Drivers/CMSIS/Include/cmsis_gcc.h **** #ifndef   __INLINE
  44:Drivers/CMSIS/Include/cmsis_gcc.h ****   #define __INLINE                               inline
  45:Drivers/CMSIS/Include/cmsis_gcc.h **** #endif
  46:Drivers/CMSIS/Include/cmsis_gcc.h **** #ifndef   __STATIC_INLINE
  47:Drivers/CMSIS/Include/cmsis_gcc.h ****   #define __STATIC_INLINE                        static inline
  48:Drivers/CMSIS/Include/cmsis_gcc.h **** #endif
  49:Drivers/CMSIS/Include/cmsis_gcc.h **** #ifndef   __STATIC_FORCEINLINE                 
  50:Drivers/CMSIS/Include/cmsis_gcc.h ****   #define __STATIC_FORCEINLINE                   __attribute__((always_inline)) static inline
  51:Drivers/CMSIS/Include/cmsis_gcc.h **** #endif                                           
  52:Drivers/CMSIS/Include/cmsis_gcc.h **** #ifndef   __NO_RETURN
  53:Drivers/CMSIS/Include/cmsis_gcc.h ****   #define __NO_RETURN                            __attribute__((__noreturn__))
  54:Drivers/CMSIS/Include/cmsis_gcc.h **** #endif
  55:Drivers/CMSIS/Include/cmsis_gcc.h **** #ifndef   __USED
  56:Drivers/CMSIS/Include/cmsis_gcc.h ****   #define __USED                                 __attribute__((used))
  57:Drivers/CMSIS/Include/cmsis_gcc.h **** #endif
  58:Drivers/CMSIS/Include/cmsis_gcc.h **** #ifndef   __WEAK
  59:Drivers/CMSIS/Include/cmsis_gcc.h ****   #define __WEAK                                 __attribute__((weak))
  60:Drivers/CMSIS/Include/cmsis_gcc.h **** #endif
  61:Drivers/CMSIS/Include/cmsis_gcc.h **** #ifndef   __PACKED
  62:Drivers/CMSIS/Include/cmsis_gcc.h ****   #define __PACKED                               __attribute__((packed, aligned(1)))
  63:Drivers/CMSIS/Include/cmsis_gcc.h **** #endif
  64:Drivers/CMSIS/Include/cmsis_gcc.h **** #ifndef   __PACKED_STRUCT
  65:Drivers/CMSIS/Include/cmsis_gcc.h ****   #define __PACKED_STRUCT                        struct __attribute__((packed, aligned(1)))
  66:Drivers/CMSIS/Include/cmsis_gcc.h **** #endif
  67:Drivers/CMSIS/Include/cmsis_gcc.h **** #ifndef   __PACKED_UNION
  68:Drivers/CMSIS/Include/cmsis_gcc.h ****   #define __PACKED_UNION                         union __attribute__((packed, aligned(1)))
  69:Drivers/CMSIS/Include/cmsis_gcc.h **** #endif
  70:Drivers/CMSIS/Include/cmsis_gcc.h **** #ifndef   __UNALIGNED_UINT32        /* deprecated */
  71:Drivers/CMSIS/Include/cmsis_gcc.h ****   #pragma GCC diagnostic push
  72:Drivers/CMSIS/Include/cmsis_gcc.h ****   #pragma GCC diagnostic ignored "-Wpacked"
  73:Drivers/CMSIS/Include/cmsis_gcc.h ****   #pragma GCC diagnostic ignored "-Wattributes"
  74:Drivers/CMSIS/Include/cmsis_gcc.h ****   struct __attribute__((packed)) T_UINT32 { uint32_t v; };
  75:Drivers/CMSIS/Include/cmsis_gcc.h ****   #pragma GCC diagnostic pop
  76:Drivers/CMSIS/Include/cmsis_gcc.h ****   #define __UNALIGNED_UINT32(x)                  (((struct T_UINT32 *)(x))->v)
  77:Drivers/CMSIS/Include/cmsis_gcc.h **** #endif
  78:Drivers/CMSIS/Include/cmsis_gcc.h **** #ifndef   __UNALIGNED_UINT16_WRITE
  79:Drivers/CMSIS/Include/cmsis_gcc.h ****   #pragma GCC diagnostic push
  80:Drivers/CMSIS/Include/cmsis_gcc.h ****   #pragma GCC diagnostic ignored "-Wpacked"
  81:Drivers/CMSIS/Include/cmsis_gcc.h ****   #pragma GCC diagnostic ignored "-Wattributes"
  82:Drivers/CMSIS/Include/cmsis_gcc.h ****   __PACKED_STRUCT T_UINT16_WRITE { uint16_t v; };
  83:Drivers/CMSIS/Include/cmsis_gcc.h ****   #pragma GCC diagnostic pop
  84:Drivers/CMSIS/Include/cmsis_gcc.h ****   #define __UNALIGNED_UINT16_WRITE(addr, val)    (void)((((struct T_UINT16_WRITE *)(void *)(addr))-
  85:Drivers/CMSIS/Include/cmsis_gcc.h **** #endif
  86:Drivers/CMSIS/Include/cmsis_gcc.h **** #ifndef   __UNALIGNED_UINT16_READ
  87:Drivers/CMSIS/Include/cmsis_gcc.h ****   #pragma GCC diagnostic push
  88:Drivers/CMSIS/Include/cmsis_gcc.h ****   #pragma GCC diagnostic ignored "-Wpacked"
  89:Drivers/CMSIS/Include/cmsis_gcc.h ****   #pragma GCC diagnostic ignored "-Wattributes"
  90:Drivers/CMSIS/Include/cmsis_gcc.h ****   __PACKED_STRUCT T_UINT16_READ { uint16_t v; };
  91:Drivers/CMSIS/Include/cmsis_gcc.h ****   #pragma GCC diagnostic pop
  92:Drivers/CMSIS/Include/cmsis_gcc.h ****   #define __UNALIGNED_UINT16_READ(addr)          (((const struct T_UINT16_READ *)(const void *)(add
  93:Drivers/CMSIS/Include/cmsis_gcc.h **** #endif
  94:Drivers/CMSIS/Include/cmsis_gcc.h **** #ifndef   __UNALIGNED_UINT32_WRITE
  95:Drivers/CMSIS/Include/cmsis_gcc.h ****   #pragma GCC diagnostic push
  96:Drivers/CMSIS/Include/cmsis_gcc.h ****   #pragma GCC diagnostic ignored "-Wpacked"
  97:Drivers/CMSIS/Include/cmsis_gcc.h ****   #pragma GCC diagnostic ignored "-Wattributes"
  98:Drivers/CMSIS/Include/cmsis_gcc.h ****   __PACKED_STRUCT T_UINT32_WRITE { uint32_t v; };
  99:Drivers/CMSIS/Include/cmsis_gcc.h ****   #pragma GCC diagnostic pop
ARM GAS  C:\Users\Bunyamin\AppData\Local\Temp\cc313q2w.s 			page 18


 100:Drivers/CMSIS/Include/cmsis_gcc.h ****   #define __UNALIGNED_UINT32_WRITE(addr, val)    (void)((((struct T_UINT32_WRITE *)(void *)(addr))-
 101:Drivers/CMSIS/Include/cmsis_gcc.h **** #endif
 102:Drivers/CMSIS/Include/cmsis_gcc.h **** #ifndef   __UNALIGNED_UINT32_READ
 103:Drivers/CMSIS/Include/cmsis_gcc.h ****   #pragma GCC diagnostic push
 104:Drivers/CMSIS/Include/cmsis_gcc.h ****   #pragma GCC diagnostic ignored "-Wpacked"
 105:Drivers/CMSIS/Include/cmsis_gcc.h ****   #pragma GCC diagnostic ignored "-Wattributes"
 106:Drivers/CMSIS/Include/cmsis_gcc.h ****   __PACKED_STRUCT T_UINT32_READ { uint32_t v; };
 107:Drivers/CMSIS/Include/cmsis_gcc.h ****   #pragma GCC diagnostic pop
 108:Drivers/CMSIS/Include/cmsis_gcc.h ****   #define __UNALIGNED_UINT32_READ(addr)          (((const struct T_UINT32_READ *)(const void *)(add
 109:Drivers/CMSIS/Include/cmsis_gcc.h **** #endif
 110:Drivers/CMSIS/Include/cmsis_gcc.h **** #ifndef   __ALIGNED
 111:Drivers/CMSIS/Include/cmsis_gcc.h ****   #define __ALIGNED(x)                           __attribute__((aligned(x)))
 112:Drivers/CMSIS/Include/cmsis_gcc.h **** #endif
 113:Drivers/CMSIS/Include/cmsis_gcc.h **** #ifndef   __RESTRICT
 114:Drivers/CMSIS/Include/cmsis_gcc.h ****   #define __RESTRICT                             __restrict
 115:Drivers/CMSIS/Include/cmsis_gcc.h **** #endif
 116:Drivers/CMSIS/Include/cmsis_gcc.h **** #ifndef   __COMPILER_BARRIER
 117:Drivers/CMSIS/Include/cmsis_gcc.h ****   #define __COMPILER_BARRIER()                   __ASM volatile("":::"memory")
 118:Drivers/CMSIS/Include/cmsis_gcc.h **** #endif
 119:Drivers/CMSIS/Include/cmsis_gcc.h **** 
 120:Drivers/CMSIS/Include/cmsis_gcc.h **** /* #########################  Startup and Lowlevel Init  ######################## */
 121:Drivers/CMSIS/Include/cmsis_gcc.h **** 
 122:Drivers/CMSIS/Include/cmsis_gcc.h **** #ifndef __PROGRAM_START
 123:Drivers/CMSIS/Include/cmsis_gcc.h **** 
 124:Drivers/CMSIS/Include/cmsis_gcc.h **** /**
 125:Drivers/CMSIS/Include/cmsis_gcc.h ****   \brief   Initializes data and bss sections
 126:Drivers/CMSIS/Include/cmsis_gcc.h ****   \details This default implementations initialized all data and additional bss
 127:Drivers/CMSIS/Include/cmsis_gcc.h ****            sections relying on .copy.table and .zero.table specified properly
 128:Drivers/CMSIS/Include/cmsis_gcc.h ****            in the used linker script.
 129:Drivers/CMSIS/Include/cmsis_gcc.h ****   
 130:Drivers/CMSIS/Include/cmsis_gcc.h ****  */
 131:Drivers/CMSIS/Include/cmsis_gcc.h **** __STATIC_FORCEINLINE __NO_RETURN void __cmsis_start(void)
 132:Drivers/CMSIS/Include/cmsis_gcc.h **** {
 133:Drivers/CMSIS/Include/cmsis_gcc.h ****   extern void _start(void) __NO_RETURN;
 134:Drivers/CMSIS/Include/cmsis_gcc.h ****   
 135:Drivers/CMSIS/Include/cmsis_gcc.h ****   typedef struct {
 136:Drivers/CMSIS/Include/cmsis_gcc.h ****     uint32_t const* src;
 137:Drivers/CMSIS/Include/cmsis_gcc.h ****     uint32_t* dest;
 138:Drivers/CMSIS/Include/cmsis_gcc.h ****     uint32_t  wlen;
 139:Drivers/CMSIS/Include/cmsis_gcc.h ****   } __copy_table_t;
 140:Drivers/CMSIS/Include/cmsis_gcc.h ****   
 141:Drivers/CMSIS/Include/cmsis_gcc.h ****   typedef struct {
 142:Drivers/CMSIS/Include/cmsis_gcc.h ****     uint32_t* dest;
 143:Drivers/CMSIS/Include/cmsis_gcc.h ****     uint32_t  wlen;
 144:Drivers/CMSIS/Include/cmsis_gcc.h ****   } __zero_table_t;
 145:Drivers/CMSIS/Include/cmsis_gcc.h ****   
 146:Drivers/CMSIS/Include/cmsis_gcc.h ****   extern const __copy_table_t __copy_table_start__;
 147:Drivers/CMSIS/Include/cmsis_gcc.h ****   extern const __copy_table_t __copy_table_end__;
 148:Drivers/CMSIS/Include/cmsis_gcc.h ****   extern const __zero_table_t __zero_table_start__;
 149:Drivers/CMSIS/Include/cmsis_gcc.h ****   extern const __zero_table_t __zero_table_end__;
 150:Drivers/CMSIS/Include/cmsis_gcc.h **** 
 151:Drivers/CMSIS/Include/cmsis_gcc.h ****   for (__copy_table_t const* pTable = &__copy_table_start__; pTable < &__copy_table_end__; ++pTable
 152:Drivers/CMSIS/Include/cmsis_gcc.h ****     for(uint32_t i=0u; i<pTable->wlen; ++i) {
 153:Drivers/CMSIS/Include/cmsis_gcc.h ****       pTable->dest[i] = pTable->src[i];
 154:Drivers/CMSIS/Include/cmsis_gcc.h ****     }
 155:Drivers/CMSIS/Include/cmsis_gcc.h ****   }
 156:Drivers/CMSIS/Include/cmsis_gcc.h ****  
ARM GAS  C:\Users\Bunyamin\AppData\Local\Temp\cc313q2w.s 			page 19


 157:Drivers/CMSIS/Include/cmsis_gcc.h ****   for (__zero_table_t const* pTable = &__zero_table_start__; pTable < &__zero_table_end__; ++pTable
 158:Drivers/CMSIS/Include/cmsis_gcc.h ****     for(uint32_t i=0u; i<pTable->wlen; ++i) {
 159:Drivers/CMSIS/Include/cmsis_gcc.h ****       pTable->dest[i] = 0u;
 160:Drivers/CMSIS/Include/cmsis_gcc.h ****     }
 161:Drivers/CMSIS/Include/cmsis_gcc.h ****   }
 162:Drivers/CMSIS/Include/cmsis_gcc.h ****  
 163:Drivers/CMSIS/Include/cmsis_gcc.h ****   _start();
 164:Drivers/CMSIS/Include/cmsis_gcc.h **** }
 165:Drivers/CMSIS/Include/cmsis_gcc.h ****   
 166:Drivers/CMSIS/Include/cmsis_gcc.h **** #define __PROGRAM_START           __cmsis_start
 167:Drivers/CMSIS/Include/cmsis_gcc.h **** #endif
 168:Drivers/CMSIS/Include/cmsis_gcc.h **** 
 169:Drivers/CMSIS/Include/cmsis_gcc.h **** #ifndef __INITIAL_SP
 170:Drivers/CMSIS/Include/cmsis_gcc.h **** #define __INITIAL_SP              __StackTop
 171:Drivers/CMSIS/Include/cmsis_gcc.h **** #endif
 172:Drivers/CMSIS/Include/cmsis_gcc.h **** 
 173:Drivers/CMSIS/Include/cmsis_gcc.h **** #ifndef __STACK_LIMIT
 174:Drivers/CMSIS/Include/cmsis_gcc.h **** #define __STACK_LIMIT             __StackLimit
 175:Drivers/CMSIS/Include/cmsis_gcc.h **** #endif
 176:Drivers/CMSIS/Include/cmsis_gcc.h **** 
 177:Drivers/CMSIS/Include/cmsis_gcc.h **** #ifndef __VECTOR_TABLE
 178:Drivers/CMSIS/Include/cmsis_gcc.h **** #define __VECTOR_TABLE            __Vectors
 179:Drivers/CMSIS/Include/cmsis_gcc.h **** #endif
 180:Drivers/CMSIS/Include/cmsis_gcc.h **** 
 181:Drivers/CMSIS/Include/cmsis_gcc.h **** #ifndef __VECTOR_TABLE_ATTRIBUTE
 182:Drivers/CMSIS/Include/cmsis_gcc.h **** #define __VECTOR_TABLE_ATTRIBUTE  __attribute((used, section(".vectors")))
 183:Drivers/CMSIS/Include/cmsis_gcc.h **** #endif
 184:Drivers/CMSIS/Include/cmsis_gcc.h **** 
 185:Drivers/CMSIS/Include/cmsis_gcc.h **** /* ###########################  Core Function Access  ########################### */
 186:Drivers/CMSIS/Include/cmsis_gcc.h **** /** \ingroup  CMSIS_Core_FunctionInterface
 187:Drivers/CMSIS/Include/cmsis_gcc.h ****     \defgroup CMSIS_Core_RegAccFunctions CMSIS Core Register Access Functions
 188:Drivers/CMSIS/Include/cmsis_gcc.h ****   @{
 189:Drivers/CMSIS/Include/cmsis_gcc.h ****  */
 190:Drivers/CMSIS/Include/cmsis_gcc.h **** 
 191:Drivers/CMSIS/Include/cmsis_gcc.h **** /**
 192:Drivers/CMSIS/Include/cmsis_gcc.h ****   \brief   Enable IRQ Interrupts
 193:Drivers/CMSIS/Include/cmsis_gcc.h ****   \details Enables IRQ interrupts by clearing the I-bit in the CPSR.
 194:Drivers/CMSIS/Include/cmsis_gcc.h ****            Can only be executed in Privileged modes.
 195:Drivers/CMSIS/Include/cmsis_gcc.h ****  */
 196:Drivers/CMSIS/Include/cmsis_gcc.h **** __STATIC_FORCEINLINE void __enable_irq(void)
 197:Drivers/CMSIS/Include/cmsis_gcc.h **** {
 198:Drivers/CMSIS/Include/cmsis_gcc.h ****   __ASM volatile ("cpsie i" : : : "memory");
 199:Drivers/CMSIS/Include/cmsis_gcc.h **** }
 200:Drivers/CMSIS/Include/cmsis_gcc.h **** 
 201:Drivers/CMSIS/Include/cmsis_gcc.h **** 
 202:Drivers/CMSIS/Include/cmsis_gcc.h **** /**
 203:Drivers/CMSIS/Include/cmsis_gcc.h ****   \brief   Disable IRQ Interrupts
 204:Drivers/CMSIS/Include/cmsis_gcc.h ****   \details Disables IRQ interrupts by setting the I-bit in the CPSR.
 205:Drivers/CMSIS/Include/cmsis_gcc.h ****            Can only be executed in Privileged modes.
 206:Drivers/CMSIS/Include/cmsis_gcc.h ****  */
 207:Drivers/CMSIS/Include/cmsis_gcc.h **** __STATIC_FORCEINLINE void __disable_irq(void)
 208:Drivers/CMSIS/Include/cmsis_gcc.h **** {
 209:Drivers/CMSIS/Include/cmsis_gcc.h ****   __ASM volatile ("cpsid i" : : : "memory");
 559              		.loc 2 209 3
 560              		.syntax unified
 561              	@ 209 "Drivers/CMSIS/Include/cmsis_gcc.h" 1
 562 0004 72B6     		cpsid i
ARM GAS  C:\Users\Bunyamin\AppData\Local\Temp\cc313q2w.s 			page 20


 563              	@ 0 "" 2
 210:Drivers/CMSIS/Include/cmsis_gcc.h **** }
 564              		.loc 2 210 1
 565              		.thumb
 566              		.syntax unified
 567 0006 00BF     		nop
 568              	.L26:
 569              	.LBE8:
 570              	.LBE7:
 315:Core/Src/main.c ****   /* USER CODE BEGIN Error_Handler_Debug */
 316:Core/Src/main.c ****   /* User can add his own implementation to report the HAL error return state */
 317:Core/Src/main.c ****   __disable_irq();
 318:Core/Src/main.c ****   while (1)
 571              		.loc 1 318 9 discriminator 1
 572 0008 FEE7     		b	.L26
 573              		.cfi_endproc
 574              	.LFE142:
 576              		.text
 577              	.Letext0:
 578              		.file 3 "Drivers/CMSIS/Device/ST/STM32L4xx/Include/stm32l431xx.h"
 579              		.file 4 "c:\\dev\\tool\\gcc-arm-11.2-2022.02-mingw-w64-i686-arm-none-eabi\\arm-none-eabi\\include\
 580              		.file 5 "c:\\dev\\tool\\gcc-arm-11.2-2022.02-mingw-w64-i686-arm-none-eabi\\arm-none-eabi\\include\
 581              		.file 6 "Drivers/STM32L4xx_HAL_Driver/Inc/stm32l4xx_hal_def.h"
 582              		.file 7 "Drivers/STM32L4xx_HAL_Driver/Inc/stm32l4xx_hal_rcc.h"
 583              		.file 8 "Drivers/STM32L4xx_HAL_Driver/Inc/stm32l4xx_hal_gpio.h"
 584              		.file 9 "Drivers/STM32L4xx_HAL_Driver/Inc/stm32l4xx_hal_dma.h"
 585              		.file 10 "Drivers/STM32L4xx_HAL_Driver/Inc/stm32l4xx_hal_tim.h"
 586              		.file 11 "Drivers/STM32L4xx_HAL_Driver/Inc/stm32l4xx_hal_uart.h"
 587              		.file 12 "Middlewares/Third_Party/FreeRTOS/Source/CMSIS_RTOS_V2/cmsis_os2.h"
 588              		.file 13 "Drivers/STM32L4xx_HAL_Driver/Inc/stm32l4xx_hal_cortex.h"
 589              		.file 14 "Drivers/STM32L4xx_HAL_Driver/Inc/stm32l4xx_hal_pwr_ex.h"
 590              		.file 15 "Drivers/STM32L4xx_HAL_Driver/Inc/stm32l4xx_hal.h"
 591              		.file 16 "Middlewares/Third_Party/SEGGER/SEGGER_RTT.h"
ARM GAS  C:\Users\Bunyamin\AppData\Local\Temp\cc313q2w.s 			page 21

