ARM GAS  C:\Users\Bunyamin\AppData\Local\Temp\ccKBFeh8.s 			page 1


   1              		.cpu cortex-m4
   2              		.arch armv7e-m
   3              		.fpu fpv4-sp-d16
   4              		.eabi_attribute 27, 1
   5              		.eabi_attribute 28, 1
   6              		.eabi_attribute 20, 1
   7              		.eabi_attribute 21, 1
   8              		.eabi_attribute 23, 3
   9              		.eabi_attribute 24, 1
  10              		.eabi_attribute 25, 1
  11              		.eabi_attribute 26, 1
  12              		.eabi_attribute 30, 6
  13              		.eabi_attribute 34, 1
  14              		.eabi_attribute 18, 4
  15              		.file	"stm32l4xx_hal_timebase_tim.c"
  16              		.text
  17              	.Ltext0:
  18              		.cfi_sections	.debug_frame
  19              		.global	htim7
  20              		.section	.bss.htim7,"aw",%nobits
  21              		.align	2
  24              	htim7:
  25 0000 00000000 		.space	76
  25      00000000 
  25      00000000 
  25      00000000 
  25      00000000 
  26              		.section	.text.HAL_InitTick,"ax",%progbits
  27              		.align	1
  28              		.global	HAL_InitTick
  29              		.syntax unified
  30              		.thumb
  31              		.thumb_func
  33              	HAL_InitTick:
  34              	.LFB132:
  35              		.file 1 "Core/Src/stm32l4xx_hal_timebase_tim.c"
   1:Core/Src/stm32l4xx_hal_timebase_tim.c **** /* USER CODE BEGIN Header */
   2:Core/Src/stm32l4xx_hal_timebase_tim.c **** /**
   3:Core/Src/stm32l4xx_hal_timebase_tim.c ****   ******************************************************************************
   4:Core/Src/stm32l4xx_hal_timebase_tim.c ****   * @file    stm32l4xx_hal_timebase_TIM.c
   5:Core/Src/stm32l4xx_hal_timebase_tim.c ****   * @brief   HAL time base based on the hardware TIM.
   6:Core/Src/stm32l4xx_hal_timebase_tim.c ****   ******************************************************************************
   7:Core/Src/stm32l4xx_hal_timebase_tim.c ****   * @attention
   8:Core/Src/stm32l4xx_hal_timebase_tim.c ****   *
   9:Core/Src/stm32l4xx_hal_timebase_tim.c ****   * Copyright (c) 2022 STMicroelectronics.
  10:Core/Src/stm32l4xx_hal_timebase_tim.c ****   * All rights reserved.
  11:Core/Src/stm32l4xx_hal_timebase_tim.c ****   *
  12:Core/Src/stm32l4xx_hal_timebase_tim.c ****   * This software is licensed under terms that can be found in the LICENSE file
  13:Core/Src/stm32l4xx_hal_timebase_tim.c ****   * in the root directory of this software component.
  14:Core/Src/stm32l4xx_hal_timebase_tim.c ****   * If no LICENSE file comes with this software, it is provided AS-IS.
  15:Core/Src/stm32l4xx_hal_timebase_tim.c ****   *
  16:Core/Src/stm32l4xx_hal_timebase_tim.c ****   ******************************************************************************
  17:Core/Src/stm32l4xx_hal_timebase_tim.c ****   */
  18:Core/Src/stm32l4xx_hal_timebase_tim.c **** /* USER CODE END Header */
  19:Core/Src/stm32l4xx_hal_timebase_tim.c **** 
  20:Core/Src/stm32l4xx_hal_timebase_tim.c **** /* Includes ------------------------------------------------------------------*/
  21:Core/Src/stm32l4xx_hal_timebase_tim.c **** #include "stm32l4xx_hal.h"
ARM GAS  C:\Users\Bunyamin\AppData\Local\Temp\ccKBFeh8.s 			page 2


  22:Core/Src/stm32l4xx_hal_timebase_tim.c **** #include "stm32l4xx_hal_tim.h"
  23:Core/Src/stm32l4xx_hal_timebase_tim.c **** 
  24:Core/Src/stm32l4xx_hal_timebase_tim.c **** /* Private typedef -----------------------------------------------------------*/
  25:Core/Src/stm32l4xx_hal_timebase_tim.c **** /* Private define ------------------------------------------------------------*/
  26:Core/Src/stm32l4xx_hal_timebase_tim.c **** /* Private macro -------------------------------------------------------------*/
  27:Core/Src/stm32l4xx_hal_timebase_tim.c **** /* Private variables ---------------------------------------------------------*/
  28:Core/Src/stm32l4xx_hal_timebase_tim.c **** TIM_HandleTypeDef        htim7;
  29:Core/Src/stm32l4xx_hal_timebase_tim.c **** /* Private function prototypes -----------------------------------------------*/
  30:Core/Src/stm32l4xx_hal_timebase_tim.c **** /* Private functions ---------------------------------------------------------*/
  31:Core/Src/stm32l4xx_hal_timebase_tim.c **** 
  32:Core/Src/stm32l4xx_hal_timebase_tim.c **** /**
  33:Core/Src/stm32l4xx_hal_timebase_tim.c ****   * @brief  This function configures the TIM7 as a time base source.
  34:Core/Src/stm32l4xx_hal_timebase_tim.c ****   *         The time source is configured  to have 1ms time base with a dedicated
  35:Core/Src/stm32l4xx_hal_timebase_tim.c ****   *         Tick interrupt priority.
  36:Core/Src/stm32l4xx_hal_timebase_tim.c ****   * @note   This function is called  automatically at the beginning of program after
  37:Core/Src/stm32l4xx_hal_timebase_tim.c ****   *         reset by HAL_Init() or at any time when clock is configured, by HAL_RCC_ClockConfig().
  38:Core/Src/stm32l4xx_hal_timebase_tim.c ****   * @param  TickPriority: Tick interrupt priority.
  39:Core/Src/stm32l4xx_hal_timebase_tim.c ****   * @retval HAL status
  40:Core/Src/stm32l4xx_hal_timebase_tim.c ****   */
  41:Core/Src/stm32l4xx_hal_timebase_tim.c **** HAL_StatusTypeDef HAL_InitTick(uint32_t TickPriority)
  42:Core/Src/stm32l4xx_hal_timebase_tim.c **** {
  36              		.loc 1 42 1
  37              		.cfi_startproc
  38              		@ args = 0, pretend = 0, frame = 48
  39              		@ frame_needed = 1, uses_anonymous_args = 0
  40 0000 80B5     		push	{r7, lr}
  41              	.LCFI0:
  42              		.cfi_def_cfa_offset 8
  43              		.cfi_offset 7, -8
  44              		.cfi_offset 14, -4
  45 0002 8CB0     		sub	sp, sp, #48
  46              	.LCFI1:
  47              		.cfi_def_cfa_offset 56
  48 0004 00AF     		add	r7, sp, #0
  49              	.LCFI2:
  50              		.cfi_def_cfa_register 7
  51 0006 7860     		str	r0, [r7, #4]
  43:Core/Src/stm32l4xx_hal_timebase_tim.c ****   RCC_ClkInitTypeDef    clkconfig;
  44:Core/Src/stm32l4xx_hal_timebase_tim.c ****   uint32_t              uwTimclock = 0;
  52              		.loc 1 44 25
  53 0008 0023     		movs	r3, #0
  54 000a FB62     		str	r3, [r7, #44]
  45:Core/Src/stm32l4xx_hal_timebase_tim.c ****   uint32_t              uwPrescalerValue = 0;
  55              		.loc 1 45 25
  56 000c 0023     		movs	r3, #0
  57 000e BB62     		str	r3, [r7, #40]
  46:Core/Src/stm32l4xx_hal_timebase_tim.c ****   uint32_t              pFLatency;
  47:Core/Src/stm32l4xx_hal_timebase_tim.c ****   /*Configure the TIM7 IRQ priority */
  48:Core/Src/stm32l4xx_hal_timebase_tim.c ****   HAL_NVIC_SetPriority(TIM7_IRQn, TickPriority ,0);
  58              		.loc 1 48 3
  59 0010 0022     		movs	r2, #0
  60 0012 7968     		ldr	r1, [r7, #4]
  61 0014 3720     		movs	r0, #55
  62 0016 FFF7FEFF 		bl	HAL_NVIC_SetPriority
  49:Core/Src/stm32l4xx_hal_timebase_tim.c **** 
  50:Core/Src/stm32l4xx_hal_timebase_tim.c ****   /* Enable the TIM7 global Interrupt */
  51:Core/Src/stm32l4xx_hal_timebase_tim.c ****   HAL_NVIC_EnableIRQ(TIM7_IRQn);
ARM GAS  C:\Users\Bunyamin\AppData\Local\Temp\ccKBFeh8.s 			page 3


  63              		.loc 1 51 3
  64 001a 3720     		movs	r0, #55
  65 001c FFF7FEFF 		bl	HAL_NVIC_EnableIRQ
  66              	.LBB2:
  52:Core/Src/stm32l4xx_hal_timebase_tim.c **** 
  53:Core/Src/stm32l4xx_hal_timebase_tim.c ****   /* Enable TIM7 clock */
  54:Core/Src/stm32l4xx_hal_timebase_tim.c ****   __HAL_RCC_TIM7_CLK_ENABLE();
  67              		.loc 1 54 3
  68 0020 1E4B     		ldr	r3, .L5
  69 0022 9B6D     		ldr	r3, [r3, #88]
  70 0024 1D4A     		ldr	r2, .L5
  71 0026 43F02003 		orr	r3, r3, #32
  72 002a 9365     		str	r3, [r2, #88]
  73 002c 1B4B     		ldr	r3, .L5
  74 002e 9B6D     		ldr	r3, [r3, #88]
  75 0030 03F02003 		and	r3, r3, #32
  76 0034 FB60     		str	r3, [r7, #12]
  77 0036 FB68     		ldr	r3, [r7, #12]
  78              	.LBE2:
  55:Core/Src/stm32l4xx_hal_timebase_tim.c **** 
  56:Core/Src/stm32l4xx_hal_timebase_tim.c ****   /* Get clock configuration */
  57:Core/Src/stm32l4xx_hal_timebase_tim.c ****   HAL_RCC_GetClockConfig(&clkconfig, &pFLatency);
  79              		.loc 1 57 3
  80 0038 07F11002 		add	r2, r7, #16
  81 003c 07F11403 		add	r3, r7, #20
  82 0040 1146     		mov	r1, r2
  83 0042 1846     		mov	r0, r3
  84 0044 FFF7FEFF 		bl	HAL_RCC_GetClockConfig
  58:Core/Src/stm32l4xx_hal_timebase_tim.c **** 
  59:Core/Src/stm32l4xx_hal_timebase_tim.c ****   /* Compute TIM7 clock */
  60:Core/Src/stm32l4xx_hal_timebase_tim.c ****   uwTimclock = HAL_RCC_GetPCLK1Freq();
  85              		.loc 1 60 16
  86 0048 FFF7FEFF 		bl	HAL_RCC_GetPCLK1Freq
  87 004c F862     		str	r0, [r7, #44]
  61:Core/Src/stm32l4xx_hal_timebase_tim.c ****   /* Compute the prescaler value to have TIM7 counter clock equal to 1MHz */
  62:Core/Src/stm32l4xx_hal_timebase_tim.c ****   uwPrescalerValue = (uint32_t) ((uwTimclock / 1000000U) - 1U);
  88              		.loc 1 62 46
  89 004e FB6A     		ldr	r3, [r7, #44]
  90 0050 134A     		ldr	r2, .L5+4
  91 0052 A2FB0323 		umull	r2, r3, r2, r3
  92 0056 9B0C     		lsrs	r3, r3, #18
  93              		.loc 1 62 20
  94 0058 013B     		subs	r3, r3, #1
  95 005a BB62     		str	r3, [r7, #40]
  63:Core/Src/stm32l4xx_hal_timebase_tim.c **** 
  64:Core/Src/stm32l4xx_hal_timebase_tim.c ****   /* Initialize TIM7 */
  65:Core/Src/stm32l4xx_hal_timebase_tim.c ****   htim7.Instance = TIM7;
  96              		.loc 1 65 18
  97 005c 114B     		ldr	r3, .L5+8
  98 005e 124A     		ldr	r2, .L5+12
  99 0060 1A60     		str	r2, [r3]
  66:Core/Src/stm32l4xx_hal_timebase_tim.c **** 
  67:Core/Src/stm32l4xx_hal_timebase_tim.c ****   /* Initialize TIMx peripheral as follow:
  68:Core/Src/stm32l4xx_hal_timebase_tim.c ****   + Period = [(TIM7CLK/1000) - 1]. to have a (1/1000) s time base.
  69:Core/Src/stm32l4xx_hal_timebase_tim.c ****   + Prescaler = (uwTimclock/1000000 - 1) to have a 1MHz counter clock.
  70:Core/Src/stm32l4xx_hal_timebase_tim.c ****   + ClockDivision = 0
  71:Core/Src/stm32l4xx_hal_timebase_tim.c ****   + Counter direction = Up
ARM GAS  C:\Users\Bunyamin\AppData\Local\Temp\ccKBFeh8.s 			page 4


  72:Core/Src/stm32l4xx_hal_timebase_tim.c ****   */
  73:Core/Src/stm32l4xx_hal_timebase_tim.c ****   htim7.Init.Period = (1000000U / 1000U) - 1U;
 100              		.loc 1 73 21
 101 0062 104B     		ldr	r3, .L5+8
 102 0064 40F2E732 		movw	r2, #999
 103 0068 DA60     		str	r2, [r3, #12]
  74:Core/Src/stm32l4xx_hal_timebase_tim.c ****   htim7.Init.Prescaler = uwPrescalerValue;
 104              		.loc 1 74 24
 105 006a 0E4A     		ldr	r2, .L5+8
 106 006c BB6A     		ldr	r3, [r7, #40]
 107 006e 5360     		str	r3, [r2, #4]
  75:Core/Src/stm32l4xx_hal_timebase_tim.c ****   htim7.Init.ClockDivision = 0;
 108              		.loc 1 75 28
 109 0070 0C4B     		ldr	r3, .L5+8
 110 0072 0022     		movs	r2, #0
 111 0074 1A61     		str	r2, [r3, #16]
  76:Core/Src/stm32l4xx_hal_timebase_tim.c ****   htim7.Init.CounterMode = TIM_COUNTERMODE_UP;
 112              		.loc 1 76 26
 113 0076 0B4B     		ldr	r3, .L5+8
 114 0078 0022     		movs	r2, #0
 115 007a 9A60     		str	r2, [r3, #8]
  77:Core/Src/stm32l4xx_hal_timebase_tim.c **** 
  78:Core/Src/stm32l4xx_hal_timebase_tim.c ****   if(HAL_TIM_Base_Init(&htim7) == HAL_OK)
 116              		.loc 1 78 6
 117 007c 0948     		ldr	r0, .L5+8
 118 007e FFF7FEFF 		bl	HAL_TIM_Base_Init
 119 0082 0346     		mov	r3, r0
 120              		.loc 1 78 5
 121 0084 002B     		cmp	r3, #0
 122 0086 04D1     		bne	.L2
  79:Core/Src/stm32l4xx_hal_timebase_tim.c ****   {
  80:Core/Src/stm32l4xx_hal_timebase_tim.c ****     /* Start the TIM time Base generation in interrupt mode */
  81:Core/Src/stm32l4xx_hal_timebase_tim.c ****     return HAL_TIM_Base_Start_IT(&htim7);
 123              		.loc 1 81 12
 124 0088 0648     		ldr	r0, .L5+8
 125 008a FFF7FEFF 		bl	HAL_TIM_Base_Start_IT
 126 008e 0346     		mov	r3, r0
 127 0090 00E0     		b	.L4
 128              	.L2:
  82:Core/Src/stm32l4xx_hal_timebase_tim.c ****   }
  83:Core/Src/stm32l4xx_hal_timebase_tim.c **** 
  84:Core/Src/stm32l4xx_hal_timebase_tim.c ****   /* Return function status */
  85:Core/Src/stm32l4xx_hal_timebase_tim.c ****   return HAL_ERROR;
 129              		.loc 1 85 10
 130 0092 0123     		movs	r3, #1
 131              	.L4:
  86:Core/Src/stm32l4xx_hal_timebase_tim.c **** }
 132              		.loc 1 86 1 discriminator 1
 133 0094 1846     		mov	r0, r3
 134 0096 3037     		adds	r7, r7, #48
 135              	.LCFI3:
 136              		.cfi_def_cfa_offset 8
 137 0098 BD46     		mov	sp, r7
 138              	.LCFI4:
 139              		.cfi_def_cfa_register 13
 140              		@ sp needed
 141 009a 80BD     		pop	{r7, pc}
ARM GAS  C:\Users\Bunyamin\AppData\Local\Temp\ccKBFeh8.s 			page 5


 142              	.L6:
 143              		.align	2
 144              	.L5:
 145 009c 00100240 		.word	1073876992
 146 00a0 83DE1B43 		.word	1125899907
 147 00a4 00000000 		.word	htim7
 148 00a8 00140040 		.word	1073746944
 149              		.cfi_endproc
 150              	.LFE132:
 152              		.section	.text.HAL_SuspendTick,"ax",%progbits
 153              		.align	1
 154              		.global	HAL_SuspendTick
 155              		.syntax unified
 156              		.thumb
 157              		.thumb_func
 159              	HAL_SuspendTick:
 160              	.LFB133:
  87:Core/Src/stm32l4xx_hal_timebase_tim.c **** 
  88:Core/Src/stm32l4xx_hal_timebase_tim.c **** /**
  89:Core/Src/stm32l4xx_hal_timebase_tim.c ****   * @brief  Suspend Tick increment.
  90:Core/Src/stm32l4xx_hal_timebase_tim.c ****   * @note   Disable the tick increment by disabling TIM7 update interrupt.
  91:Core/Src/stm32l4xx_hal_timebase_tim.c ****   * @param  None
  92:Core/Src/stm32l4xx_hal_timebase_tim.c ****   * @retval None
  93:Core/Src/stm32l4xx_hal_timebase_tim.c ****   */
  94:Core/Src/stm32l4xx_hal_timebase_tim.c **** void HAL_SuspendTick(void)
  95:Core/Src/stm32l4xx_hal_timebase_tim.c **** {
 161              		.loc 1 95 1
 162              		.cfi_startproc
 163              		@ args = 0, pretend = 0, frame = 0
 164              		@ frame_needed = 1, uses_anonymous_args = 0
 165              		@ link register save eliminated.
 166 0000 80B4     		push	{r7}
 167              	.LCFI5:
 168              		.cfi_def_cfa_offset 4
 169              		.cfi_offset 7, -4
 170 0002 00AF     		add	r7, sp, #0
 171              	.LCFI6:
 172              		.cfi_def_cfa_register 7
  96:Core/Src/stm32l4xx_hal_timebase_tim.c ****   /* Disable TIM7 update Interrupt */
  97:Core/Src/stm32l4xx_hal_timebase_tim.c ****   __HAL_TIM_DISABLE_IT(&htim7, TIM_IT_UPDATE);
 173              		.loc 1 97 3
 174 0004 064B     		ldr	r3, .L8
 175 0006 1B68     		ldr	r3, [r3]
 176 0008 DA68     		ldr	r2, [r3, #12]
 177 000a 054B     		ldr	r3, .L8
 178 000c 1B68     		ldr	r3, [r3]
 179 000e 22F00102 		bic	r2, r2, #1
 180 0012 DA60     		str	r2, [r3, #12]
  98:Core/Src/stm32l4xx_hal_timebase_tim.c **** }
 181              		.loc 1 98 1
 182 0014 00BF     		nop
 183 0016 BD46     		mov	sp, r7
 184              	.LCFI7:
 185              		.cfi_def_cfa_register 13
 186              		@ sp needed
 187 0018 5DF8047B 		ldr	r7, [sp], #4
 188              	.LCFI8:
ARM GAS  C:\Users\Bunyamin\AppData\Local\Temp\ccKBFeh8.s 			page 6


 189              		.cfi_restore 7
 190              		.cfi_def_cfa_offset 0
 191 001c 7047     		bx	lr
 192              	.L9:
 193 001e 00BF     		.align	2
 194              	.L8:
 195 0020 00000000 		.word	htim7
 196              		.cfi_endproc
 197              	.LFE133:
 199              		.section	.text.HAL_ResumeTick,"ax",%progbits
 200              		.align	1
 201              		.global	HAL_ResumeTick
 202              		.syntax unified
 203              		.thumb
 204              		.thumb_func
 206              	HAL_ResumeTick:
 207              	.LFB134:
  99:Core/Src/stm32l4xx_hal_timebase_tim.c **** 
 100:Core/Src/stm32l4xx_hal_timebase_tim.c **** /**
 101:Core/Src/stm32l4xx_hal_timebase_tim.c ****   * @brief  Resume Tick increment.
 102:Core/Src/stm32l4xx_hal_timebase_tim.c ****   * @note   Enable the tick increment by Enabling TIM7 update interrupt.
 103:Core/Src/stm32l4xx_hal_timebase_tim.c ****   * @param  None
 104:Core/Src/stm32l4xx_hal_timebase_tim.c ****   * @retval None
 105:Core/Src/stm32l4xx_hal_timebase_tim.c ****   */
 106:Core/Src/stm32l4xx_hal_timebase_tim.c **** void HAL_ResumeTick(void)
 107:Core/Src/stm32l4xx_hal_timebase_tim.c **** {
 208              		.loc 1 107 1
 209              		.cfi_startproc
 210              		@ args = 0, pretend = 0, frame = 0
 211              		@ frame_needed = 1, uses_anonymous_args = 0
 212              		@ link register save eliminated.
 213 0000 80B4     		push	{r7}
 214              	.LCFI9:
 215              		.cfi_def_cfa_offset 4
 216              		.cfi_offset 7, -4
 217 0002 00AF     		add	r7, sp, #0
 218              	.LCFI10:
 219              		.cfi_def_cfa_register 7
 108:Core/Src/stm32l4xx_hal_timebase_tim.c ****   /* Enable TIM7 Update interrupt */
 109:Core/Src/stm32l4xx_hal_timebase_tim.c ****   __HAL_TIM_ENABLE_IT(&htim7, TIM_IT_UPDATE);
 220              		.loc 1 109 3
 221 0004 064B     		ldr	r3, .L11
 222 0006 1B68     		ldr	r3, [r3]
 223 0008 DA68     		ldr	r2, [r3, #12]
 224 000a 054B     		ldr	r3, .L11
 225 000c 1B68     		ldr	r3, [r3]
 226 000e 42F00102 		orr	r2, r2, #1
 227 0012 DA60     		str	r2, [r3, #12]
 110:Core/Src/stm32l4xx_hal_timebase_tim.c **** }
 228              		.loc 1 110 1
 229 0014 00BF     		nop
 230 0016 BD46     		mov	sp, r7
 231              	.LCFI11:
 232              		.cfi_def_cfa_register 13
 233              		@ sp needed
 234 0018 5DF8047B 		ldr	r7, [sp], #4
 235              	.LCFI12:
ARM GAS  C:\Users\Bunyamin\AppData\Local\Temp\ccKBFeh8.s 			page 7


 236              		.cfi_restore 7
 237              		.cfi_def_cfa_offset 0
 238 001c 7047     		bx	lr
 239              	.L12:
 240 001e 00BF     		.align	2
 241              	.L11:
 242 0020 00000000 		.word	htim7
 243              		.cfi_endproc
 244              	.LFE134:
 246              		.text
 247              	.Letext0:
 248              		.file 2 "Drivers/CMSIS/Device/ST/STM32L4xx/Include/stm32l431xx.h"
 249              		.file 3 "c:\\dev\\tool\\gcc-arm-11.2-2022.02-mingw-w64-i686-arm-none-eabi\\arm-none-eabi\\include\
 250              		.file 4 "c:\\dev\\tool\\gcc-arm-11.2-2022.02-mingw-w64-i686-arm-none-eabi\\arm-none-eabi\\include\
 251              		.file 5 "Drivers/STM32L4xx_HAL_Driver/Inc/stm32l4xx_hal_def.h"
 252              		.file 6 "Drivers/STM32L4xx_HAL_Driver/Inc/stm32l4xx_hal_rcc.h"
 253              		.file 7 "Drivers/STM32L4xx_HAL_Driver/Inc/stm32l4xx_hal_dma.h"
 254              		.file 8 "Drivers/STM32L4xx_HAL_Driver/Inc/stm32l4xx_hal_tim.h"
 255              		.file 9 "Drivers/STM32L4xx_HAL_Driver/Inc/stm32l4xx_hal_cortex.h"
ARM GAS  C:\Users\Bunyamin\AppData\Local\Temp\ccKBFeh8.s 			page 8

