ARM GAS  C:\Users\Bunyamin\AppData\Local\Temp\ccFW9f40.s 			page 1


   1              		.cpu cortex-m4
   2              		.arch armv7e-m
   3              		.fpu fpv4-sp-d16
   4              		.eabi_attribute 27, 1
   5              		.eabi_attribute 28, 1
   6              		.eabi_attribute 20, 1
   7              		.eabi_attribute 21, 1
   8              		.eabi_attribute 23, 3
   9              		.eabi_attribute 24, 1
  10              		.eabi_attribute 25, 1
  11              		.eabi_attribute 26, 1
  12              		.eabi_attribute 30, 6
  13              		.eabi_attribute 34, 1
  14              		.eabi_attribute 18, 4
  15              		.file	"timers.c"
  16              		.text
  17              	.Ltext0:
  18              		.cfi_sections	.debug_frame
  19              		.section	.bss.xActiveTimerList1,"aw",%nobits
  20              		.align	2
  23              	xActiveTimerList1:
  24 0000 00000000 		.space	20
  24      00000000 
  24      00000000 
  24      00000000 
  24      00000000 
  25              		.section	.bss.xActiveTimerList2,"aw",%nobits
  26              		.align	2
  29              	xActiveTimerList2:
  30 0000 00000000 		.space	20
  30      00000000 
  30      00000000 
  30      00000000 
  30      00000000 
  31              		.section	.bss.pxCurrentTimerList,"aw",%nobits
  32              		.align	2
  35              	pxCurrentTimerList:
  36 0000 00000000 		.space	4
  37              		.section	.bss.pxOverflowTimerList,"aw",%nobits
  38              		.align	2
  41              	pxOverflowTimerList:
  42 0000 00000000 		.space	4
  43              		.section	.bss.xTimerQueue,"aw",%nobits
  44              		.align	2
  47              	xTimerQueue:
  48 0000 00000000 		.space	4
  49              		.section	.bss.xTimerTaskHandle,"aw",%nobits
  50              		.align	2
  53              	xTimerTaskHandle:
  54 0000 00000000 		.space	4
  55              		.section	.rodata
  56              		.align	2
  57              	.LC0:
  58 0000 546D7220 		.ascii	"Tmr Svc\000"
  58      53766300 
  59              		.section	.text.xTimerCreateTimerTask,"ax",%progbits
  60              		.align	1
ARM GAS  C:\Users\Bunyamin\AppData\Local\Temp\ccFW9f40.s 			page 2


  61              		.global	xTimerCreateTimerTask
  62              		.syntax unified
  63              		.thumb
  64              		.thumb_func
  66              	xTimerCreateTimerTask:
  67              	.LFB4:
  68              		.file 1 "Middlewares/Third_Party/FreeRTOS/Source/timers.c"
   1:Middlewares/Third_Party/FreeRTOS/Source/timers.c **** /*
   2:Middlewares/Third_Party/FreeRTOS/Source/timers.c ****  * FreeRTOS Kernel V10.3.1
   3:Middlewares/Third_Party/FreeRTOS/Source/timers.c ****  * Copyright (C) 2020 Amazon.com, Inc. or its affiliates.  All Rights Reserved.
   4:Middlewares/Third_Party/FreeRTOS/Source/timers.c ****  *
   5:Middlewares/Third_Party/FreeRTOS/Source/timers.c ****  * Permission is hereby granted, free of charge, to any person obtaining a copy of
   6:Middlewares/Third_Party/FreeRTOS/Source/timers.c ****  * this software and associated documentation files (the "Software"), to deal in
   7:Middlewares/Third_Party/FreeRTOS/Source/timers.c ****  * the Software without restriction, including without limitation the rights to
   8:Middlewares/Third_Party/FreeRTOS/Source/timers.c ****  * use, copy, modify, merge, publish, distribute, sublicense, and/or sell copies of
   9:Middlewares/Third_Party/FreeRTOS/Source/timers.c ****  * the Software, and to permit persons to whom the Software is furnished to do so,
  10:Middlewares/Third_Party/FreeRTOS/Source/timers.c ****  * subject to the following conditions:
  11:Middlewares/Third_Party/FreeRTOS/Source/timers.c ****  *
  12:Middlewares/Third_Party/FreeRTOS/Source/timers.c ****  * The above copyright notice and this permission notice shall be included in all
  13:Middlewares/Third_Party/FreeRTOS/Source/timers.c ****  * copies or substantial portions of the Software.
  14:Middlewares/Third_Party/FreeRTOS/Source/timers.c ****  *
  15:Middlewares/Third_Party/FreeRTOS/Source/timers.c ****  * THE SOFTWARE IS PROVIDED "AS IS", WITHOUT WARRANTY OF ANY KIND, EXPRESS OR
  16:Middlewares/Third_Party/FreeRTOS/Source/timers.c ****  * IMPLIED, INCLUDING BUT NOT LIMITED TO THE WARRANTIES OF MERCHANTABILITY, FITNESS
  17:Middlewares/Third_Party/FreeRTOS/Source/timers.c ****  * FOR A PARTICULAR PURPOSE AND NONINFRINGEMENT. IN NO EVENT SHALL THE AUTHORS OR
  18:Middlewares/Third_Party/FreeRTOS/Source/timers.c ****  * COPYRIGHT HOLDERS BE LIABLE FOR ANY CLAIM, DAMAGES OR OTHER LIABILITY, WHETHER
  19:Middlewares/Third_Party/FreeRTOS/Source/timers.c ****  * IN AN ACTION OF CONTRACT, TORT OR OTHERWISE, ARISING FROM, OUT OF OR IN
  20:Middlewares/Third_Party/FreeRTOS/Source/timers.c ****  * CONNECTION WITH THE SOFTWARE OR THE USE OR OTHER DEALINGS IN THE SOFTWARE.
  21:Middlewares/Third_Party/FreeRTOS/Source/timers.c ****  *
  22:Middlewares/Third_Party/FreeRTOS/Source/timers.c ****  * http://www.FreeRTOS.org
  23:Middlewares/Third_Party/FreeRTOS/Source/timers.c ****  * http://aws.amazon.com/freertos
  24:Middlewares/Third_Party/FreeRTOS/Source/timers.c ****  *
  25:Middlewares/Third_Party/FreeRTOS/Source/timers.c ****  * 1 tab == 4 spaces!
  26:Middlewares/Third_Party/FreeRTOS/Source/timers.c ****  */
  27:Middlewares/Third_Party/FreeRTOS/Source/timers.c **** 
  28:Middlewares/Third_Party/FreeRTOS/Source/timers.c **** /* Standard includes. */
  29:Middlewares/Third_Party/FreeRTOS/Source/timers.c **** #include <stdlib.h>
  30:Middlewares/Third_Party/FreeRTOS/Source/timers.c **** 
  31:Middlewares/Third_Party/FreeRTOS/Source/timers.c **** /* Defining MPU_WRAPPERS_INCLUDED_FROM_API_FILE prevents task.h from redefining
  32:Middlewares/Third_Party/FreeRTOS/Source/timers.c **** all the API functions to use the MPU wrappers.  That should only be done when
  33:Middlewares/Third_Party/FreeRTOS/Source/timers.c **** task.h is included from an application file. */
  34:Middlewares/Third_Party/FreeRTOS/Source/timers.c **** #define MPU_WRAPPERS_INCLUDED_FROM_API_FILE
  35:Middlewares/Third_Party/FreeRTOS/Source/timers.c **** 
  36:Middlewares/Third_Party/FreeRTOS/Source/timers.c **** #include "FreeRTOS.h"
  37:Middlewares/Third_Party/FreeRTOS/Source/timers.c **** #include "task.h"
  38:Middlewares/Third_Party/FreeRTOS/Source/timers.c **** #include "queue.h"
  39:Middlewares/Third_Party/FreeRTOS/Source/timers.c **** #include "timers.h"
  40:Middlewares/Third_Party/FreeRTOS/Source/timers.c **** 
  41:Middlewares/Third_Party/FreeRTOS/Source/timers.c **** #if ( INCLUDE_xTimerPendFunctionCall == 1 ) && ( configUSE_TIMERS == 0 )
  42:Middlewares/Third_Party/FreeRTOS/Source/timers.c **** 	#error configUSE_TIMERS must be set to 1 to make the xTimerPendFunctionCall() function available.
  43:Middlewares/Third_Party/FreeRTOS/Source/timers.c **** #endif
  44:Middlewares/Third_Party/FreeRTOS/Source/timers.c **** 
  45:Middlewares/Third_Party/FreeRTOS/Source/timers.c **** /* Lint e9021, e961 and e750 are suppressed as a MISRA exception justified
  46:Middlewares/Third_Party/FreeRTOS/Source/timers.c **** because the MPU ports require MPU_WRAPPERS_INCLUDED_FROM_API_FILE to be defined
  47:Middlewares/Third_Party/FreeRTOS/Source/timers.c **** for the header files above, but not in this file, in order to generate the
  48:Middlewares/Third_Party/FreeRTOS/Source/timers.c **** correct privileged Vs unprivileged linkage and placement. */
  49:Middlewares/Third_Party/FreeRTOS/Source/timers.c **** #undef MPU_WRAPPERS_INCLUDED_FROM_API_FILE /*lint !e9021 !e961 !e750. */
  50:Middlewares/Third_Party/FreeRTOS/Source/timers.c **** 
ARM GAS  C:\Users\Bunyamin\AppData\Local\Temp\ccFW9f40.s 			page 3


  51:Middlewares/Third_Party/FreeRTOS/Source/timers.c **** 
  52:Middlewares/Third_Party/FreeRTOS/Source/timers.c **** /* This entire source file will be skipped if the application is not configured
  53:Middlewares/Third_Party/FreeRTOS/Source/timers.c **** to include software timer functionality.  This #if is closed at the very bottom
  54:Middlewares/Third_Party/FreeRTOS/Source/timers.c **** of this file.  If you want to include software timer functionality then ensure
  55:Middlewares/Third_Party/FreeRTOS/Source/timers.c **** configUSE_TIMERS is set to 1 in FreeRTOSConfig.h. */
  56:Middlewares/Third_Party/FreeRTOS/Source/timers.c **** #if ( configUSE_TIMERS == 1 )
  57:Middlewares/Third_Party/FreeRTOS/Source/timers.c **** 
  58:Middlewares/Third_Party/FreeRTOS/Source/timers.c **** /* Misc definitions. */
  59:Middlewares/Third_Party/FreeRTOS/Source/timers.c **** #define tmrNO_DELAY		( TickType_t ) 0U
  60:Middlewares/Third_Party/FreeRTOS/Source/timers.c **** 
  61:Middlewares/Third_Party/FreeRTOS/Source/timers.c **** /* The name assigned to the timer service task.  This can be overridden by
  62:Middlewares/Third_Party/FreeRTOS/Source/timers.c **** defining trmTIMER_SERVICE_TASK_NAME in FreeRTOSConfig.h. */
  63:Middlewares/Third_Party/FreeRTOS/Source/timers.c **** #ifndef configTIMER_SERVICE_TASK_NAME
  64:Middlewares/Third_Party/FreeRTOS/Source/timers.c **** 	#define configTIMER_SERVICE_TASK_NAME "Tmr Svc"
  65:Middlewares/Third_Party/FreeRTOS/Source/timers.c **** #endif
  66:Middlewares/Third_Party/FreeRTOS/Source/timers.c **** 
  67:Middlewares/Third_Party/FreeRTOS/Source/timers.c **** /* Bit definitions used in the ucStatus member of a timer structure. */
  68:Middlewares/Third_Party/FreeRTOS/Source/timers.c **** #define tmrSTATUS_IS_ACTIVE					( ( uint8_t ) 0x01 )
  69:Middlewares/Third_Party/FreeRTOS/Source/timers.c **** #define tmrSTATUS_IS_STATICALLY_ALLOCATED	( ( uint8_t ) 0x02 )
  70:Middlewares/Third_Party/FreeRTOS/Source/timers.c **** #define tmrSTATUS_IS_AUTORELOAD				( ( uint8_t ) 0x04 )
  71:Middlewares/Third_Party/FreeRTOS/Source/timers.c **** 
  72:Middlewares/Third_Party/FreeRTOS/Source/timers.c **** /* The definition of the timers themselves. */
  73:Middlewares/Third_Party/FreeRTOS/Source/timers.c **** typedef struct tmrTimerControl /* The old naming convention is used to prevent breaking kernel awar
  74:Middlewares/Third_Party/FreeRTOS/Source/timers.c **** {
  75:Middlewares/Third_Party/FreeRTOS/Source/timers.c **** 	const char				*pcTimerName;		/*<< Text name.  This is not used by the kernel, it is included simpl
  76:Middlewares/Third_Party/FreeRTOS/Source/timers.c **** 	ListItem_t				xTimerListItem;		/*<< Standard linked list item as used by all kernel features for e
  77:Middlewares/Third_Party/FreeRTOS/Source/timers.c **** 	TickType_t				xTimerPeriodInTicks;/*<< How quickly and often the timer expires. */
  78:Middlewares/Third_Party/FreeRTOS/Source/timers.c **** 	void 					*pvTimerID;			/*<< An ID to identify the timer.  This allows the timer to be identified 
  79:Middlewares/Third_Party/FreeRTOS/Source/timers.c **** 	TimerCallbackFunction_t	pxCallbackFunction;	/*<< The function that will be called when the timer e
  80:Middlewares/Third_Party/FreeRTOS/Source/timers.c **** 	#if( configUSE_TRACE_FACILITY == 1 )
  81:Middlewares/Third_Party/FreeRTOS/Source/timers.c **** 		UBaseType_t			uxTimerNumber;		/*<< An ID assigned by trace tools such as FreeRTOS+Trace */
  82:Middlewares/Third_Party/FreeRTOS/Source/timers.c **** 	#endif
  83:Middlewares/Third_Party/FreeRTOS/Source/timers.c **** 	uint8_t 				ucStatus;			/*<< Holds bits to say if the timer was statically allocated or not, and i
  84:Middlewares/Third_Party/FreeRTOS/Source/timers.c **** } xTIMER;
  85:Middlewares/Third_Party/FreeRTOS/Source/timers.c **** 
  86:Middlewares/Third_Party/FreeRTOS/Source/timers.c **** /* The old xTIMER name is maintained above then typedefed to the new Timer_t
  87:Middlewares/Third_Party/FreeRTOS/Source/timers.c **** name below to enable the use of older kernel aware debuggers. */
  88:Middlewares/Third_Party/FreeRTOS/Source/timers.c **** typedef xTIMER Timer_t;
  89:Middlewares/Third_Party/FreeRTOS/Source/timers.c **** 
  90:Middlewares/Third_Party/FreeRTOS/Source/timers.c **** /* The definition of messages that can be sent and received on the timer queue.
  91:Middlewares/Third_Party/FreeRTOS/Source/timers.c **** Two types of message can be queued - messages that manipulate a software timer,
  92:Middlewares/Third_Party/FreeRTOS/Source/timers.c **** and messages that request the execution of a non-timer related callback.  The
  93:Middlewares/Third_Party/FreeRTOS/Source/timers.c **** two message types are defined in two separate structures, xTimerParametersType
  94:Middlewares/Third_Party/FreeRTOS/Source/timers.c **** and xCallbackParametersType respectively. */
  95:Middlewares/Third_Party/FreeRTOS/Source/timers.c **** typedef struct tmrTimerParameters
  96:Middlewares/Third_Party/FreeRTOS/Source/timers.c **** {
  97:Middlewares/Third_Party/FreeRTOS/Source/timers.c **** 	TickType_t			xMessageValue;		/*<< An optional value used by a subset of commands, for example, whe
  98:Middlewares/Third_Party/FreeRTOS/Source/timers.c **** 	Timer_t *			pxTimer;			/*<< The timer to which the command will be applied. */
  99:Middlewares/Third_Party/FreeRTOS/Source/timers.c **** } TimerParameter_t;
 100:Middlewares/Third_Party/FreeRTOS/Source/timers.c **** 
 101:Middlewares/Third_Party/FreeRTOS/Source/timers.c **** 
 102:Middlewares/Third_Party/FreeRTOS/Source/timers.c **** typedef struct tmrCallbackParameters
 103:Middlewares/Third_Party/FreeRTOS/Source/timers.c **** {
 104:Middlewares/Third_Party/FreeRTOS/Source/timers.c **** 	PendedFunction_t	pxCallbackFunction;	/* << The callback function to execute. */
 105:Middlewares/Third_Party/FreeRTOS/Source/timers.c **** 	void *pvParameter1;						/* << The value that will be used as the callback functions first paramet
 106:Middlewares/Third_Party/FreeRTOS/Source/timers.c **** 	uint32_t ulParameter2;					/* << The value that will be used as the callback functions second para
 107:Middlewares/Third_Party/FreeRTOS/Source/timers.c **** } CallbackParameters_t;
ARM GAS  C:\Users\Bunyamin\AppData\Local\Temp\ccFW9f40.s 			page 4


 108:Middlewares/Third_Party/FreeRTOS/Source/timers.c **** 
 109:Middlewares/Third_Party/FreeRTOS/Source/timers.c **** /* The structure that contains the two message types, along with an identifier
 110:Middlewares/Third_Party/FreeRTOS/Source/timers.c **** that is used to determine which message type is valid. */
 111:Middlewares/Third_Party/FreeRTOS/Source/timers.c **** typedef struct tmrTimerQueueMessage
 112:Middlewares/Third_Party/FreeRTOS/Source/timers.c **** {
 113:Middlewares/Third_Party/FreeRTOS/Source/timers.c **** 	BaseType_t			xMessageID;			/*<< The command being sent to the timer service task. */
 114:Middlewares/Third_Party/FreeRTOS/Source/timers.c **** 	union
 115:Middlewares/Third_Party/FreeRTOS/Source/timers.c **** 	{
 116:Middlewares/Third_Party/FreeRTOS/Source/timers.c **** 		TimerParameter_t xTimerParameters;
 117:Middlewares/Third_Party/FreeRTOS/Source/timers.c **** 
 118:Middlewares/Third_Party/FreeRTOS/Source/timers.c **** 		/* Don't include xCallbackParameters if it is not going to be used as
 119:Middlewares/Third_Party/FreeRTOS/Source/timers.c **** 		it makes the structure (and therefore the timer queue) larger. */
 120:Middlewares/Third_Party/FreeRTOS/Source/timers.c **** 		#if ( INCLUDE_xTimerPendFunctionCall == 1 )
 121:Middlewares/Third_Party/FreeRTOS/Source/timers.c **** 			CallbackParameters_t xCallbackParameters;
 122:Middlewares/Third_Party/FreeRTOS/Source/timers.c **** 		#endif /* INCLUDE_xTimerPendFunctionCall */
 123:Middlewares/Third_Party/FreeRTOS/Source/timers.c **** 	} u;
 124:Middlewares/Third_Party/FreeRTOS/Source/timers.c **** } DaemonTaskMessage_t;
 125:Middlewares/Third_Party/FreeRTOS/Source/timers.c **** 
 126:Middlewares/Third_Party/FreeRTOS/Source/timers.c **** /*lint -save -e956 A manual analysis and inspection has been used to determine
 127:Middlewares/Third_Party/FreeRTOS/Source/timers.c **** which static variables must be declared volatile. */
 128:Middlewares/Third_Party/FreeRTOS/Source/timers.c **** 
 129:Middlewares/Third_Party/FreeRTOS/Source/timers.c **** /* The list in which active timers are stored.  Timers are referenced in expire
 130:Middlewares/Third_Party/FreeRTOS/Source/timers.c **** time order, with the nearest expiry time at the front of the list.  Only the
 131:Middlewares/Third_Party/FreeRTOS/Source/timers.c **** timer service task is allowed to access these lists.
 132:Middlewares/Third_Party/FreeRTOS/Source/timers.c **** xActiveTimerList1 and xActiveTimerList2 could be at function scope but that
 133:Middlewares/Third_Party/FreeRTOS/Source/timers.c **** breaks some kernel aware debuggers, and debuggers that reply on removing the
 134:Middlewares/Third_Party/FreeRTOS/Source/timers.c **** static qualifier. */
 135:Middlewares/Third_Party/FreeRTOS/Source/timers.c **** PRIVILEGED_DATA static List_t xActiveTimerList1;
 136:Middlewares/Third_Party/FreeRTOS/Source/timers.c **** PRIVILEGED_DATA static List_t xActiveTimerList2;
 137:Middlewares/Third_Party/FreeRTOS/Source/timers.c **** PRIVILEGED_DATA static List_t *pxCurrentTimerList;
 138:Middlewares/Third_Party/FreeRTOS/Source/timers.c **** PRIVILEGED_DATA static List_t *pxOverflowTimerList;
 139:Middlewares/Third_Party/FreeRTOS/Source/timers.c **** 
 140:Middlewares/Third_Party/FreeRTOS/Source/timers.c **** /* A queue that is used to send commands to the timer service task. */
 141:Middlewares/Third_Party/FreeRTOS/Source/timers.c **** PRIVILEGED_DATA static QueueHandle_t xTimerQueue = NULL;
 142:Middlewares/Third_Party/FreeRTOS/Source/timers.c **** PRIVILEGED_DATA static TaskHandle_t xTimerTaskHandle = NULL;
 143:Middlewares/Third_Party/FreeRTOS/Source/timers.c **** 
 144:Middlewares/Third_Party/FreeRTOS/Source/timers.c **** /*lint -restore */
 145:Middlewares/Third_Party/FreeRTOS/Source/timers.c **** 
 146:Middlewares/Third_Party/FreeRTOS/Source/timers.c **** /*-----------------------------------------------------------*/
 147:Middlewares/Third_Party/FreeRTOS/Source/timers.c **** 
 148:Middlewares/Third_Party/FreeRTOS/Source/timers.c **** #if( configSUPPORT_STATIC_ALLOCATION == 1 )
 149:Middlewares/Third_Party/FreeRTOS/Source/timers.c **** 
 150:Middlewares/Third_Party/FreeRTOS/Source/timers.c **** 	/* If static allocation is supported then the application must provide the
 151:Middlewares/Third_Party/FreeRTOS/Source/timers.c **** 	following callback function - which enables the application to optionally
 152:Middlewares/Third_Party/FreeRTOS/Source/timers.c **** 	provide the memory that will be used by the timer task as the task's stack
 153:Middlewares/Third_Party/FreeRTOS/Source/timers.c **** 	and TCB. */
 154:Middlewares/Third_Party/FreeRTOS/Source/timers.c **** 	extern void vApplicationGetTimerTaskMemory( StaticTask_t **ppxTimerTaskTCBBuffer, StackType_t **pp
 155:Middlewares/Third_Party/FreeRTOS/Source/timers.c **** 
 156:Middlewares/Third_Party/FreeRTOS/Source/timers.c **** #endif
 157:Middlewares/Third_Party/FreeRTOS/Source/timers.c **** 
 158:Middlewares/Third_Party/FreeRTOS/Source/timers.c **** /*
 159:Middlewares/Third_Party/FreeRTOS/Source/timers.c ****  * Initialise the infrastructure used by the timer service task if it has not
 160:Middlewares/Third_Party/FreeRTOS/Source/timers.c ****  * been initialised already.
 161:Middlewares/Third_Party/FreeRTOS/Source/timers.c ****  */
 162:Middlewares/Third_Party/FreeRTOS/Source/timers.c **** static void prvCheckForValidListAndQueue( void ) PRIVILEGED_FUNCTION;
 163:Middlewares/Third_Party/FreeRTOS/Source/timers.c **** 
 164:Middlewares/Third_Party/FreeRTOS/Source/timers.c **** /*
ARM GAS  C:\Users\Bunyamin\AppData\Local\Temp\ccFW9f40.s 			page 5


 165:Middlewares/Third_Party/FreeRTOS/Source/timers.c ****  * The timer service task (daemon).  Timer functionality is controlled by this
 166:Middlewares/Third_Party/FreeRTOS/Source/timers.c ****  * task.  Other tasks communicate with the timer service task using the
 167:Middlewares/Third_Party/FreeRTOS/Source/timers.c ****  * xTimerQueue queue.
 168:Middlewares/Third_Party/FreeRTOS/Source/timers.c ****  */
 169:Middlewares/Third_Party/FreeRTOS/Source/timers.c **** static portTASK_FUNCTION_PROTO( prvTimerTask, pvParameters ) PRIVILEGED_FUNCTION;
 170:Middlewares/Third_Party/FreeRTOS/Source/timers.c **** 
 171:Middlewares/Third_Party/FreeRTOS/Source/timers.c **** /*
 172:Middlewares/Third_Party/FreeRTOS/Source/timers.c ****  * Called by the timer service task to interpret and process a command it
 173:Middlewares/Third_Party/FreeRTOS/Source/timers.c ****  * received on the timer queue.
 174:Middlewares/Third_Party/FreeRTOS/Source/timers.c ****  */
 175:Middlewares/Third_Party/FreeRTOS/Source/timers.c **** static void prvProcessReceivedCommands( void ) PRIVILEGED_FUNCTION;
 176:Middlewares/Third_Party/FreeRTOS/Source/timers.c **** 
 177:Middlewares/Third_Party/FreeRTOS/Source/timers.c **** /*
 178:Middlewares/Third_Party/FreeRTOS/Source/timers.c ****  * Insert the timer into either xActiveTimerList1, or xActiveTimerList2,
 179:Middlewares/Third_Party/FreeRTOS/Source/timers.c ****  * depending on if the expire time causes a timer counter overflow.
 180:Middlewares/Third_Party/FreeRTOS/Source/timers.c ****  */
 181:Middlewares/Third_Party/FreeRTOS/Source/timers.c **** static BaseType_t prvInsertTimerInActiveList( Timer_t * const pxTimer, const TickType_t xNextExpiry
 182:Middlewares/Third_Party/FreeRTOS/Source/timers.c **** 
 183:Middlewares/Third_Party/FreeRTOS/Source/timers.c **** /*
 184:Middlewares/Third_Party/FreeRTOS/Source/timers.c ****  * An active timer has reached its expire time.  Reload the timer if it is an
 185:Middlewares/Third_Party/FreeRTOS/Source/timers.c ****  * auto-reload timer, then call its callback.
 186:Middlewares/Third_Party/FreeRTOS/Source/timers.c ****  */
 187:Middlewares/Third_Party/FreeRTOS/Source/timers.c **** static void prvProcessExpiredTimer( const TickType_t xNextExpireTime, const TickType_t xTimeNow ) P
 188:Middlewares/Third_Party/FreeRTOS/Source/timers.c **** 
 189:Middlewares/Third_Party/FreeRTOS/Source/timers.c **** /*
 190:Middlewares/Third_Party/FreeRTOS/Source/timers.c ****  * The tick count has overflowed.  Switch the timer lists after ensuring the
 191:Middlewares/Third_Party/FreeRTOS/Source/timers.c ****  * current timer list does not still reference some timers.
 192:Middlewares/Third_Party/FreeRTOS/Source/timers.c ****  */
 193:Middlewares/Third_Party/FreeRTOS/Source/timers.c **** static void prvSwitchTimerLists( void ) PRIVILEGED_FUNCTION;
 194:Middlewares/Third_Party/FreeRTOS/Source/timers.c **** 
 195:Middlewares/Third_Party/FreeRTOS/Source/timers.c **** /*
 196:Middlewares/Third_Party/FreeRTOS/Source/timers.c ****  * Obtain the current tick count, setting *pxTimerListsWereSwitched to pdTRUE
 197:Middlewares/Third_Party/FreeRTOS/Source/timers.c ****  * if a tick count overflow occurred since prvSampleTimeNow() was last called.
 198:Middlewares/Third_Party/FreeRTOS/Source/timers.c ****  */
 199:Middlewares/Third_Party/FreeRTOS/Source/timers.c **** static TickType_t prvSampleTimeNow( BaseType_t * const pxTimerListsWereSwitched ) PRIVILEGED_FUNCTI
 200:Middlewares/Third_Party/FreeRTOS/Source/timers.c **** 
 201:Middlewares/Third_Party/FreeRTOS/Source/timers.c **** /*
 202:Middlewares/Third_Party/FreeRTOS/Source/timers.c ****  * If the timer list contains any active timers then return the expire time of
 203:Middlewares/Third_Party/FreeRTOS/Source/timers.c ****  * the timer that will expire first and set *pxListWasEmpty to false.  If the
 204:Middlewares/Third_Party/FreeRTOS/Source/timers.c ****  * timer list does not contain any timers then return 0 and set *pxListWasEmpty
 205:Middlewares/Third_Party/FreeRTOS/Source/timers.c ****  * to pdTRUE.
 206:Middlewares/Third_Party/FreeRTOS/Source/timers.c ****  */
 207:Middlewares/Third_Party/FreeRTOS/Source/timers.c **** static TickType_t prvGetNextExpireTime( BaseType_t * const pxListWasEmpty ) PRIVILEGED_FUNCTION;
 208:Middlewares/Third_Party/FreeRTOS/Source/timers.c **** 
 209:Middlewares/Third_Party/FreeRTOS/Source/timers.c **** /*
 210:Middlewares/Third_Party/FreeRTOS/Source/timers.c ****  * If a timer has expired, process it.  Otherwise, block the timer service task
 211:Middlewares/Third_Party/FreeRTOS/Source/timers.c ****  * until either a timer does expire or a command is received.
 212:Middlewares/Third_Party/FreeRTOS/Source/timers.c ****  */
 213:Middlewares/Third_Party/FreeRTOS/Source/timers.c **** static void prvProcessTimerOrBlockTask( const TickType_t xNextExpireTime, BaseType_t xListWasEmpty 
 214:Middlewares/Third_Party/FreeRTOS/Source/timers.c **** 
 215:Middlewares/Third_Party/FreeRTOS/Source/timers.c **** /*
 216:Middlewares/Third_Party/FreeRTOS/Source/timers.c ****  * Called after a Timer_t structure has been allocated either statically or
 217:Middlewares/Third_Party/FreeRTOS/Source/timers.c ****  * dynamically to fill in the structure's members.
 218:Middlewares/Third_Party/FreeRTOS/Source/timers.c ****  */
 219:Middlewares/Third_Party/FreeRTOS/Source/timers.c **** static void prvInitialiseNewTimer(	const char * const pcTimerName,			/*lint !e971 Unqualified char 
 220:Middlewares/Third_Party/FreeRTOS/Source/timers.c **** 									const TickType_t xTimerPeriodInTicks,
 221:Middlewares/Third_Party/FreeRTOS/Source/timers.c **** 									const UBaseType_t uxAutoReload,
ARM GAS  C:\Users\Bunyamin\AppData\Local\Temp\ccFW9f40.s 			page 6


 222:Middlewares/Third_Party/FreeRTOS/Source/timers.c **** 									void * const pvTimerID,
 223:Middlewares/Third_Party/FreeRTOS/Source/timers.c **** 									TimerCallbackFunction_t pxCallbackFunction,
 224:Middlewares/Third_Party/FreeRTOS/Source/timers.c **** 									Timer_t *pxNewTimer ) PRIVILEGED_FUNCTION;
 225:Middlewares/Third_Party/FreeRTOS/Source/timers.c **** /*-----------------------------------------------------------*/
 226:Middlewares/Third_Party/FreeRTOS/Source/timers.c **** 
 227:Middlewares/Third_Party/FreeRTOS/Source/timers.c **** BaseType_t xTimerCreateTimerTask( void )
 228:Middlewares/Third_Party/FreeRTOS/Source/timers.c **** {
  69              		.loc 1 228 1
  70              		.cfi_startproc
  71              		@ args = 0, pretend = 0, frame = 24
  72              		@ frame_needed = 1, uses_anonymous_args = 0
  73 0000 80B5     		push	{r7, lr}
  74              	.LCFI0:
  75              		.cfi_def_cfa_offset 8
  76              		.cfi_offset 7, -8
  77              		.cfi_offset 14, -4
  78 0002 8AB0     		sub	sp, sp, #40
  79              	.LCFI1:
  80              		.cfi_def_cfa_offset 48
  81 0004 04AF     		add	r7, sp, #16
  82              	.LCFI2:
  83              		.cfi_def_cfa 7, 32
 229:Middlewares/Third_Party/FreeRTOS/Source/timers.c **** BaseType_t xReturn = pdFAIL;
  84              		.loc 1 229 12
  85 0006 0023     		movs	r3, #0
  86 0008 7B61     		str	r3, [r7, #20]
 230:Middlewares/Third_Party/FreeRTOS/Source/timers.c **** 
 231:Middlewares/Third_Party/FreeRTOS/Source/timers.c **** 	/* This function is called when the scheduler is started if
 232:Middlewares/Third_Party/FreeRTOS/Source/timers.c **** 	configUSE_TIMERS is set to 1.  Check that the infrastructure used by the
 233:Middlewares/Third_Party/FreeRTOS/Source/timers.c **** 	timer service task has been created/initialised.  If timers have already
 234:Middlewares/Third_Party/FreeRTOS/Source/timers.c **** 	been created then the initialisation will already have been performed. */
 235:Middlewares/Third_Party/FreeRTOS/Source/timers.c **** 	prvCheckForValidListAndQueue();
  87              		.loc 1 235 2
  88 000a FFF7FEFF 		bl	prvCheckForValidListAndQueue
 236:Middlewares/Third_Party/FreeRTOS/Source/timers.c **** 
 237:Middlewares/Third_Party/FreeRTOS/Source/timers.c **** 	if( xTimerQueue != NULL )
  89              		.loc 1 237 18
  90 000e 1C4B     		ldr	r3, .L7
  91 0010 1B68     		ldr	r3, [r3]
  92              		.loc 1 237 4
  93 0012 002B     		cmp	r3, #0
  94 0014 21D0     		beq	.L2
  95              	.LBB45:
 238:Middlewares/Third_Party/FreeRTOS/Source/timers.c **** 	{
 239:Middlewares/Third_Party/FreeRTOS/Source/timers.c **** 		#if( configSUPPORT_STATIC_ALLOCATION == 1 )
 240:Middlewares/Third_Party/FreeRTOS/Source/timers.c **** 		{
 241:Middlewares/Third_Party/FreeRTOS/Source/timers.c **** 			StaticTask_t *pxTimerTaskTCBBuffer = NULL;
  96              		.loc 1 241 18
  97 0016 0023     		movs	r3, #0
  98 0018 FB60     		str	r3, [r7, #12]
 242:Middlewares/Third_Party/FreeRTOS/Source/timers.c **** 			StackType_t *pxTimerTaskStackBuffer = NULL;
  99              		.loc 1 242 17
 100 001a 0023     		movs	r3, #0
 101 001c BB60     		str	r3, [r7, #8]
 243:Middlewares/Third_Party/FreeRTOS/Source/timers.c **** 			uint32_t ulTimerTaskStackSize;
 244:Middlewares/Third_Party/FreeRTOS/Source/timers.c **** 
 245:Middlewares/Third_Party/FreeRTOS/Source/timers.c **** 			vApplicationGetTimerTaskMemory( &pxTimerTaskTCBBuffer, &pxTimerTaskStackBuffer, &ulTimerTaskStac
ARM GAS  C:\Users\Bunyamin\AppData\Local\Temp\ccFW9f40.s 			page 7


 102              		.loc 1 245 4
 103 001e 3A1D     		adds	r2, r7, #4
 104 0020 07F10801 		add	r1, r7, #8
 105 0024 07F10C03 		add	r3, r7, #12
 106 0028 1846     		mov	r0, r3
 107 002a FFF7FEFF 		bl	vApplicationGetTimerTaskMemory
 246:Middlewares/Third_Party/FreeRTOS/Source/timers.c **** 			xTimerTaskHandle = xTaskCreateStatic(	prvTimerTask,
 108              		.loc 1 246 23
 109 002e 7968     		ldr	r1, [r7, #4]
 110 0030 BB68     		ldr	r3, [r7, #8]
 111 0032 FA68     		ldr	r2, [r7, #12]
 112 0034 0292     		str	r2, [sp, #8]
 113 0036 0193     		str	r3, [sp, #4]
 114 0038 0223     		movs	r3, #2
 115 003a 0093     		str	r3, [sp]
 116 003c 0023     		movs	r3, #0
 117 003e 0A46     		mov	r2, r1
 118 0040 1049     		ldr	r1, .L7+4
 119 0042 1148     		ldr	r0, .L7+8
 120 0044 FFF7FEFF 		bl	xTaskCreateStatic
 121 0048 0346     		mov	r3, r0
 122              		.loc 1 246 21
 123 004a 104A     		ldr	r2, .L7+12
 124 004c 1360     		str	r3, [r2]
 247:Middlewares/Third_Party/FreeRTOS/Source/timers.c **** 													configTIMER_SERVICE_TASK_NAME,
 248:Middlewares/Third_Party/FreeRTOS/Source/timers.c **** 													ulTimerTaskStackSize,
 249:Middlewares/Third_Party/FreeRTOS/Source/timers.c **** 													NULL,
 250:Middlewares/Third_Party/FreeRTOS/Source/timers.c **** 													( ( UBaseType_t ) configTIMER_TASK_PRIORITY ) | portPRIVILEGE_BIT,
 251:Middlewares/Third_Party/FreeRTOS/Source/timers.c **** 													pxTimerTaskStackBuffer,
 252:Middlewares/Third_Party/FreeRTOS/Source/timers.c **** 													pxTimerTaskTCBBuffer );
 253:Middlewares/Third_Party/FreeRTOS/Source/timers.c **** 
 254:Middlewares/Third_Party/FreeRTOS/Source/timers.c **** 			if( xTimerTaskHandle != NULL )
 125              		.loc 1 254 25
 126 004e 0F4B     		ldr	r3, .L7+12
 127 0050 1B68     		ldr	r3, [r3]
 128              		.loc 1 254 6
 129 0052 002B     		cmp	r3, #0
 130 0054 01D0     		beq	.L2
 255:Middlewares/Third_Party/FreeRTOS/Source/timers.c **** 			{
 256:Middlewares/Third_Party/FreeRTOS/Source/timers.c **** 				xReturn = pdPASS;
 131              		.loc 1 256 13
 132 0056 0123     		movs	r3, #1
 133 0058 7B61     		str	r3, [r7, #20]
 134              	.L2:
 135              	.LBE45:
 257:Middlewares/Third_Party/FreeRTOS/Source/timers.c **** 			}
 258:Middlewares/Third_Party/FreeRTOS/Source/timers.c **** 		}
 259:Middlewares/Third_Party/FreeRTOS/Source/timers.c **** 		#else
 260:Middlewares/Third_Party/FreeRTOS/Source/timers.c **** 		{
 261:Middlewares/Third_Party/FreeRTOS/Source/timers.c **** 			xReturn = xTaskCreate(	prvTimerTask,
 262:Middlewares/Third_Party/FreeRTOS/Source/timers.c **** 									configTIMER_SERVICE_TASK_NAME,
 263:Middlewares/Third_Party/FreeRTOS/Source/timers.c **** 									configTIMER_TASK_STACK_DEPTH,
 264:Middlewares/Third_Party/FreeRTOS/Source/timers.c **** 									NULL,
 265:Middlewares/Third_Party/FreeRTOS/Source/timers.c **** 									( ( UBaseType_t ) configTIMER_TASK_PRIORITY ) | portPRIVILEGE_BIT,
 266:Middlewares/Third_Party/FreeRTOS/Source/timers.c **** 									&xTimerTaskHandle );
 267:Middlewares/Third_Party/FreeRTOS/Source/timers.c **** 		}
 268:Middlewares/Third_Party/FreeRTOS/Source/timers.c **** 		#endif /* configSUPPORT_STATIC_ALLOCATION */
ARM GAS  C:\Users\Bunyamin\AppData\Local\Temp\ccFW9f40.s 			page 8


 269:Middlewares/Third_Party/FreeRTOS/Source/timers.c **** 	}
 270:Middlewares/Third_Party/FreeRTOS/Source/timers.c **** 	else
 271:Middlewares/Third_Party/FreeRTOS/Source/timers.c **** 	{
 272:Middlewares/Third_Party/FreeRTOS/Source/timers.c **** 		mtCOVERAGE_TEST_MARKER();
 273:Middlewares/Third_Party/FreeRTOS/Source/timers.c **** 	}
 274:Middlewares/Third_Party/FreeRTOS/Source/timers.c **** 
 275:Middlewares/Third_Party/FreeRTOS/Source/timers.c **** 	configASSERT( xReturn );
 136              		.loc 1 275 2
 137 005a 7B69     		ldr	r3, [r7, #20]
 138 005c 002B     		cmp	r3, #0
 139 005e 0AD1     		bne	.L4
 140              	.LBB46:
 141              	.LBB47:
 142              		.file 2 "Middlewares/Third_Party/FreeRTOS/Source/portable/GCC/ARM_CM4F/portmacro.h"
   1:Middlewares/Third_Party/FreeRTOS/Source/portable/GCC/ARM_CM4F/portmacro.h **** /*
   2:Middlewares/Third_Party/FreeRTOS/Source/portable/GCC/ARM_CM4F/portmacro.h ****  * FreeRTOS Kernel V10.3.1
   3:Middlewares/Third_Party/FreeRTOS/Source/portable/GCC/ARM_CM4F/portmacro.h ****  * Copyright (C) 2020 Amazon.com, Inc. or its affiliates.  All Rights Reserved.
   4:Middlewares/Third_Party/FreeRTOS/Source/portable/GCC/ARM_CM4F/portmacro.h ****  *
   5:Middlewares/Third_Party/FreeRTOS/Source/portable/GCC/ARM_CM4F/portmacro.h ****  * Permission is hereby granted, free of charge, to any person obtaining a copy of
   6:Middlewares/Third_Party/FreeRTOS/Source/portable/GCC/ARM_CM4F/portmacro.h ****  * this software and associated documentation files (the "Software"), to deal in
   7:Middlewares/Third_Party/FreeRTOS/Source/portable/GCC/ARM_CM4F/portmacro.h ****  * the Software without restriction, including without limitation the rights to
   8:Middlewares/Third_Party/FreeRTOS/Source/portable/GCC/ARM_CM4F/portmacro.h ****  * use, copy, modify, merge, publish, distribute, sublicense, and/or sell copies of
   9:Middlewares/Third_Party/FreeRTOS/Source/portable/GCC/ARM_CM4F/portmacro.h ****  * the Software, and to permit persons to whom the Software is furnished to do so,
  10:Middlewares/Third_Party/FreeRTOS/Source/portable/GCC/ARM_CM4F/portmacro.h ****  * subject to the following conditions:
  11:Middlewares/Third_Party/FreeRTOS/Source/portable/GCC/ARM_CM4F/portmacro.h ****  *
  12:Middlewares/Third_Party/FreeRTOS/Source/portable/GCC/ARM_CM4F/portmacro.h ****  * The above copyright notice and this permission notice shall be included in all
  13:Middlewares/Third_Party/FreeRTOS/Source/portable/GCC/ARM_CM4F/portmacro.h ****  * copies or substantial portions of the Software.
  14:Middlewares/Third_Party/FreeRTOS/Source/portable/GCC/ARM_CM4F/portmacro.h ****  *
  15:Middlewares/Third_Party/FreeRTOS/Source/portable/GCC/ARM_CM4F/portmacro.h ****  * THE SOFTWARE IS PROVIDED "AS IS", WITHOUT WARRANTY OF ANY KIND, EXPRESS OR
  16:Middlewares/Third_Party/FreeRTOS/Source/portable/GCC/ARM_CM4F/portmacro.h ****  * IMPLIED, INCLUDING BUT NOT LIMITED TO THE WARRANTIES OF MERCHANTABILITY, FITNESS
  17:Middlewares/Third_Party/FreeRTOS/Source/portable/GCC/ARM_CM4F/portmacro.h ****  * FOR A PARTICULAR PURPOSE AND NONINFRINGEMENT. IN NO EVENT SHALL THE AUTHORS OR
  18:Middlewares/Third_Party/FreeRTOS/Source/portable/GCC/ARM_CM4F/portmacro.h ****  * COPYRIGHT HOLDERS BE LIABLE FOR ANY CLAIM, DAMAGES OR OTHER LIABILITY, WHETHER
  19:Middlewares/Third_Party/FreeRTOS/Source/portable/GCC/ARM_CM4F/portmacro.h ****  * IN AN ACTION OF CONTRACT, TORT OR OTHERWISE, ARISING FROM, OUT OF OR IN
  20:Middlewares/Third_Party/FreeRTOS/Source/portable/GCC/ARM_CM4F/portmacro.h ****  * CONNECTION WITH THE SOFTWARE OR THE USE OR OTHER DEALINGS IN THE SOFTWARE.
  21:Middlewares/Third_Party/FreeRTOS/Source/portable/GCC/ARM_CM4F/portmacro.h ****  *
  22:Middlewares/Third_Party/FreeRTOS/Source/portable/GCC/ARM_CM4F/portmacro.h ****  * http://www.FreeRTOS.org
  23:Middlewares/Third_Party/FreeRTOS/Source/portable/GCC/ARM_CM4F/portmacro.h ****  * http://aws.amazon.com/freertos
  24:Middlewares/Third_Party/FreeRTOS/Source/portable/GCC/ARM_CM4F/portmacro.h ****  *
  25:Middlewares/Third_Party/FreeRTOS/Source/portable/GCC/ARM_CM4F/portmacro.h ****  * 1 tab == 4 spaces!
  26:Middlewares/Third_Party/FreeRTOS/Source/portable/GCC/ARM_CM4F/portmacro.h ****  */
  27:Middlewares/Third_Party/FreeRTOS/Source/portable/GCC/ARM_CM4F/portmacro.h **** 
  28:Middlewares/Third_Party/FreeRTOS/Source/portable/GCC/ARM_CM4F/portmacro.h **** 
  29:Middlewares/Third_Party/FreeRTOS/Source/portable/GCC/ARM_CM4F/portmacro.h **** #ifndef PORTMACRO_H
  30:Middlewares/Third_Party/FreeRTOS/Source/portable/GCC/ARM_CM4F/portmacro.h **** #define PORTMACRO_H
  31:Middlewares/Third_Party/FreeRTOS/Source/portable/GCC/ARM_CM4F/portmacro.h **** 
  32:Middlewares/Third_Party/FreeRTOS/Source/portable/GCC/ARM_CM4F/portmacro.h **** #ifdef __cplusplus
  33:Middlewares/Third_Party/FreeRTOS/Source/portable/GCC/ARM_CM4F/portmacro.h **** extern "C" {
  34:Middlewares/Third_Party/FreeRTOS/Source/portable/GCC/ARM_CM4F/portmacro.h **** #endif
  35:Middlewares/Third_Party/FreeRTOS/Source/portable/GCC/ARM_CM4F/portmacro.h **** 
  36:Middlewares/Third_Party/FreeRTOS/Source/portable/GCC/ARM_CM4F/portmacro.h **** /*-----------------------------------------------------------
  37:Middlewares/Third_Party/FreeRTOS/Source/portable/GCC/ARM_CM4F/portmacro.h ****  * Port specific definitions.
  38:Middlewares/Third_Party/FreeRTOS/Source/portable/GCC/ARM_CM4F/portmacro.h ****  *
  39:Middlewares/Third_Party/FreeRTOS/Source/portable/GCC/ARM_CM4F/portmacro.h ****  * The settings in this file configure FreeRTOS correctly for the
  40:Middlewares/Third_Party/FreeRTOS/Source/portable/GCC/ARM_CM4F/portmacro.h ****  * given hardware and compiler.
  41:Middlewares/Third_Party/FreeRTOS/Source/portable/GCC/ARM_CM4F/portmacro.h ****  *
  42:Middlewares/Third_Party/FreeRTOS/Source/portable/GCC/ARM_CM4F/portmacro.h ****  * These settings should not be altered.
  43:Middlewares/Third_Party/FreeRTOS/Source/portable/GCC/ARM_CM4F/portmacro.h ****  *-----------------------------------------------------------
ARM GAS  C:\Users\Bunyamin\AppData\Local\Temp\ccFW9f40.s 			page 9


  44:Middlewares/Third_Party/FreeRTOS/Source/portable/GCC/ARM_CM4F/portmacro.h ****  */
  45:Middlewares/Third_Party/FreeRTOS/Source/portable/GCC/ARM_CM4F/portmacro.h **** 
  46:Middlewares/Third_Party/FreeRTOS/Source/portable/GCC/ARM_CM4F/portmacro.h **** /* Type definitions. */
  47:Middlewares/Third_Party/FreeRTOS/Source/portable/GCC/ARM_CM4F/portmacro.h **** #define portCHAR		char
  48:Middlewares/Third_Party/FreeRTOS/Source/portable/GCC/ARM_CM4F/portmacro.h **** #define portFLOAT		float
  49:Middlewares/Third_Party/FreeRTOS/Source/portable/GCC/ARM_CM4F/portmacro.h **** #define portDOUBLE		double
  50:Middlewares/Third_Party/FreeRTOS/Source/portable/GCC/ARM_CM4F/portmacro.h **** #define portLONG		long
  51:Middlewares/Third_Party/FreeRTOS/Source/portable/GCC/ARM_CM4F/portmacro.h **** #define portSHORT		short
  52:Middlewares/Third_Party/FreeRTOS/Source/portable/GCC/ARM_CM4F/portmacro.h **** #define portSTACK_TYPE	uint32_t
  53:Middlewares/Third_Party/FreeRTOS/Source/portable/GCC/ARM_CM4F/portmacro.h **** #define portBASE_TYPE	long
  54:Middlewares/Third_Party/FreeRTOS/Source/portable/GCC/ARM_CM4F/portmacro.h **** 
  55:Middlewares/Third_Party/FreeRTOS/Source/portable/GCC/ARM_CM4F/portmacro.h **** typedef portSTACK_TYPE StackType_t;
  56:Middlewares/Third_Party/FreeRTOS/Source/portable/GCC/ARM_CM4F/portmacro.h **** typedef long BaseType_t;
  57:Middlewares/Third_Party/FreeRTOS/Source/portable/GCC/ARM_CM4F/portmacro.h **** typedef unsigned long UBaseType_t;
  58:Middlewares/Third_Party/FreeRTOS/Source/portable/GCC/ARM_CM4F/portmacro.h **** 
  59:Middlewares/Third_Party/FreeRTOS/Source/portable/GCC/ARM_CM4F/portmacro.h **** #if( configUSE_16_BIT_TICKS == 1 )
  60:Middlewares/Third_Party/FreeRTOS/Source/portable/GCC/ARM_CM4F/portmacro.h **** 	typedef uint16_t TickType_t;
  61:Middlewares/Third_Party/FreeRTOS/Source/portable/GCC/ARM_CM4F/portmacro.h **** 	#define portMAX_DELAY ( TickType_t ) 0xffff
  62:Middlewares/Third_Party/FreeRTOS/Source/portable/GCC/ARM_CM4F/portmacro.h **** #else
  63:Middlewares/Third_Party/FreeRTOS/Source/portable/GCC/ARM_CM4F/portmacro.h **** 	typedef uint32_t TickType_t;
  64:Middlewares/Third_Party/FreeRTOS/Source/portable/GCC/ARM_CM4F/portmacro.h **** 	#define portMAX_DELAY ( TickType_t ) 0xffffffffUL
  65:Middlewares/Third_Party/FreeRTOS/Source/portable/GCC/ARM_CM4F/portmacro.h **** 
  66:Middlewares/Third_Party/FreeRTOS/Source/portable/GCC/ARM_CM4F/portmacro.h **** 	/* 32-bit tick type on a 32-bit architecture, so reads of the tick count do
  67:Middlewares/Third_Party/FreeRTOS/Source/portable/GCC/ARM_CM4F/portmacro.h **** 	not need to be guarded with a critical section. */
  68:Middlewares/Third_Party/FreeRTOS/Source/portable/GCC/ARM_CM4F/portmacro.h **** 	#define portTICK_TYPE_IS_ATOMIC 1
  69:Middlewares/Third_Party/FreeRTOS/Source/portable/GCC/ARM_CM4F/portmacro.h **** #endif
  70:Middlewares/Third_Party/FreeRTOS/Source/portable/GCC/ARM_CM4F/portmacro.h **** /*-----------------------------------------------------------*/
  71:Middlewares/Third_Party/FreeRTOS/Source/portable/GCC/ARM_CM4F/portmacro.h **** 
  72:Middlewares/Third_Party/FreeRTOS/Source/portable/GCC/ARM_CM4F/portmacro.h **** /* Architecture specifics. */
  73:Middlewares/Third_Party/FreeRTOS/Source/portable/GCC/ARM_CM4F/portmacro.h **** #define portSTACK_GROWTH			( -1 )
  74:Middlewares/Third_Party/FreeRTOS/Source/portable/GCC/ARM_CM4F/portmacro.h **** #define portTICK_PERIOD_MS			( ( TickType_t ) 1000 / configTICK_RATE_HZ )
  75:Middlewares/Third_Party/FreeRTOS/Source/portable/GCC/ARM_CM4F/portmacro.h **** #define portBYTE_ALIGNMENT			8
  76:Middlewares/Third_Party/FreeRTOS/Source/portable/GCC/ARM_CM4F/portmacro.h **** /*-----------------------------------------------------------*/
  77:Middlewares/Third_Party/FreeRTOS/Source/portable/GCC/ARM_CM4F/portmacro.h **** 
  78:Middlewares/Third_Party/FreeRTOS/Source/portable/GCC/ARM_CM4F/portmacro.h **** /* Scheduler utilities. */
  79:Middlewares/Third_Party/FreeRTOS/Source/portable/GCC/ARM_CM4F/portmacro.h **** #define portYIELD() 															\
  80:Middlewares/Third_Party/FreeRTOS/Source/portable/GCC/ARM_CM4F/portmacro.h **** {																				\
  81:Middlewares/Third_Party/FreeRTOS/Source/portable/GCC/ARM_CM4F/portmacro.h **** 	/* Set a PendSV to request a context switch. */								\
  82:Middlewares/Third_Party/FreeRTOS/Source/portable/GCC/ARM_CM4F/portmacro.h **** 	portNVIC_INT_CTRL_REG = portNVIC_PENDSVSET_BIT;								\
  83:Middlewares/Third_Party/FreeRTOS/Source/portable/GCC/ARM_CM4F/portmacro.h **** 																				\
  84:Middlewares/Third_Party/FreeRTOS/Source/portable/GCC/ARM_CM4F/portmacro.h **** 	/* Barriers are normally not required but do ensure the code is completely	\
  85:Middlewares/Third_Party/FreeRTOS/Source/portable/GCC/ARM_CM4F/portmacro.h **** 	within the specified behaviour for the architecture. */						\
  86:Middlewares/Third_Party/FreeRTOS/Source/portable/GCC/ARM_CM4F/portmacro.h **** 	__asm volatile( "dsb" ::: "memory" );										\
  87:Middlewares/Third_Party/FreeRTOS/Source/portable/GCC/ARM_CM4F/portmacro.h **** 	__asm volatile( "isb" );													\
  88:Middlewares/Third_Party/FreeRTOS/Source/portable/GCC/ARM_CM4F/portmacro.h **** }
  89:Middlewares/Third_Party/FreeRTOS/Source/portable/GCC/ARM_CM4F/portmacro.h **** 
  90:Middlewares/Third_Party/FreeRTOS/Source/portable/GCC/ARM_CM4F/portmacro.h **** #define portNVIC_INT_CTRL_REG		( * ( ( volatile uint32_t * ) 0xe000ed04 ) )
  91:Middlewares/Third_Party/FreeRTOS/Source/portable/GCC/ARM_CM4F/portmacro.h **** #define portNVIC_PENDSVSET_BIT		( 1UL << 28UL )
  92:Middlewares/Third_Party/FreeRTOS/Source/portable/GCC/ARM_CM4F/portmacro.h **** #define portEND_SWITCHING_ISR( xSwitchRequired ) if( xSwitchRequired != pdFALSE ) portYIELD()
  93:Middlewares/Third_Party/FreeRTOS/Source/portable/GCC/ARM_CM4F/portmacro.h **** #define portYIELD_FROM_ISR( x ) portEND_SWITCHING_ISR( x )
  94:Middlewares/Third_Party/FreeRTOS/Source/portable/GCC/ARM_CM4F/portmacro.h **** /*-----------------------------------------------------------*/
  95:Middlewares/Third_Party/FreeRTOS/Source/portable/GCC/ARM_CM4F/portmacro.h **** 
  96:Middlewares/Third_Party/FreeRTOS/Source/portable/GCC/ARM_CM4F/portmacro.h **** /* Critical section management. */
  97:Middlewares/Third_Party/FreeRTOS/Source/portable/GCC/ARM_CM4F/portmacro.h **** extern void vPortEnterCritical( void );
  98:Middlewares/Third_Party/FreeRTOS/Source/portable/GCC/ARM_CM4F/portmacro.h **** extern void vPortExitCritical( void );
  99:Middlewares/Third_Party/FreeRTOS/Source/portable/GCC/ARM_CM4F/portmacro.h **** #define portSET_INTERRUPT_MASK_FROM_ISR()		ulPortRaiseBASEPRI()
 100:Middlewares/Third_Party/FreeRTOS/Source/portable/GCC/ARM_CM4F/portmacro.h **** #define portCLEAR_INTERRUPT_MASK_FROM_ISR(x)	vPortSetBASEPRI(x)
ARM GAS  C:\Users\Bunyamin\AppData\Local\Temp\ccFW9f40.s 			page 10


 101:Middlewares/Third_Party/FreeRTOS/Source/portable/GCC/ARM_CM4F/portmacro.h **** #define portDISABLE_INTERRUPTS()				vPortRaiseBASEPRI()
 102:Middlewares/Third_Party/FreeRTOS/Source/portable/GCC/ARM_CM4F/portmacro.h **** #define portENABLE_INTERRUPTS()					vPortSetBASEPRI(0)
 103:Middlewares/Third_Party/FreeRTOS/Source/portable/GCC/ARM_CM4F/portmacro.h **** #define portENTER_CRITICAL()					vPortEnterCritical()
 104:Middlewares/Third_Party/FreeRTOS/Source/portable/GCC/ARM_CM4F/portmacro.h **** #define portEXIT_CRITICAL()						vPortExitCritical()
 105:Middlewares/Third_Party/FreeRTOS/Source/portable/GCC/ARM_CM4F/portmacro.h **** 
 106:Middlewares/Third_Party/FreeRTOS/Source/portable/GCC/ARM_CM4F/portmacro.h **** /*-----------------------------------------------------------*/
 107:Middlewares/Third_Party/FreeRTOS/Source/portable/GCC/ARM_CM4F/portmacro.h **** 
 108:Middlewares/Third_Party/FreeRTOS/Source/portable/GCC/ARM_CM4F/portmacro.h **** /* Task function macros as described on the FreeRTOS.org WEB site.  These are
 109:Middlewares/Third_Party/FreeRTOS/Source/portable/GCC/ARM_CM4F/portmacro.h **** not necessary for to use this port.  They are defined so the common demo files
 110:Middlewares/Third_Party/FreeRTOS/Source/portable/GCC/ARM_CM4F/portmacro.h **** (which build with all the ports) will build. */
 111:Middlewares/Third_Party/FreeRTOS/Source/portable/GCC/ARM_CM4F/portmacro.h **** #define portTASK_FUNCTION_PROTO( vFunction, pvParameters ) void vFunction( void *pvParameters )
 112:Middlewares/Third_Party/FreeRTOS/Source/portable/GCC/ARM_CM4F/portmacro.h **** #define portTASK_FUNCTION( vFunction, pvParameters ) void vFunction( void *pvParameters )
 113:Middlewares/Third_Party/FreeRTOS/Source/portable/GCC/ARM_CM4F/portmacro.h **** /*-----------------------------------------------------------*/
 114:Middlewares/Third_Party/FreeRTOS/Source/portable/GCC/ARM_CM4F/portmacro.h **** 
 115:Middlewares/Third_Party/FreeRTOS/Source/portable/GCC/ARM_CM4F/portmacro.h **** /* Tickless idle/low power functionality. */
 116:Middlewares/Third_Party/FreeRTOS/Source/portable/GCC/ARM_CM4F/portmacro.h **** #ifndef portSUPPRESS_TICKS_AND_SLEEP
 117:Middlewares/Third_Party/FreeRTOS/Source/portable/GCC/ARM_CM4F/portmacro.h **** 	extern void vPortSuppressTicksAndSleep( TickType_t xExpectedIdleTime );
 118:Middlewares/Third_Party/FreeRTOS/Source/portable/GCC/ARM_CM4F/portmacro.h **** 	#define portSUPPRESS_TICKS_AND_SLEEP( xExpectedIdleTime ) vPortSuppressTicksAndSleep( xExpectedIdl
 119:Middlewares/Third_Party/FreeRTOS/Source/portable/GCC/ARM_CM4F/portmacro.h **** #endif
 120:Middlewares/Third_Party/FreeRTOS/Source/portable/GCC/ARM_CM4F/portmacro.h **** /*-----------------------------------------------------------*/
 121:Middlewares/Third_Party/FreeRTOS/Source/portable/GCC/ARM_CM4F/portmacro.h **** 
 122:Middlewares/Third_Party/FreeRTOS/Source/portable/GCC/ARM_CM4F/portmacro.h **** /* Architecture specific optimisations. */
 123:Middlewares/Third_Party/FreeRTOS/Source/portable/GCC/ARM_CM4F/portmacro.h **** #ifndef configUSE_PORT_OPTIMISED_TASK_SELECTION
 124:Middlewares/Third_Party/FreeRTOS/Source/portable/GCC/ARM_CM4F/portmacro.h **** 	#define configUSE_PORT_OPTIMISED_TASK_SELECTION 1
 125:Middlewares/Third_Party/FreeRTOS/Source/portable/GCC/ARM_CM4F/portmacro.h **** #endif
 126:Middlewares/Third_Party/FreeRTOS/Source/portable/GCC/ARM_CM4F/portmacro.h **** 
 127:Middlewares/Third_Party/FreeRTOS/Source/portable/GCC/ARM_CM4F/portmacro.h **** #if configUSE_PORT_OPTIMISED_TASK_SELECTION == 1
 128:Middlewares/Third_Party/FreeRTOS/Source/portable/GCC/ARM_CM4F/portmacro.h **** 
 129:Middlewares/Third_Party/FreeRTOS/Source/portable/GCC/ARM_CM4F/portmacro.h **** 	/* Generic helper function. */
 130:Middlewares/Third_Party/FreeRTOS/Source/portable/GCC/ARM_CM4F/portmacro.h **** 	__attribute__( ( always_inline ) ) static inline uint8_t ucPortCountLeadingZeros( uint32_t ulBitma
 131:Middlewares/Third_Party/FreeRTOS/Source/portable/GCC/ARM_CM4F/portmacro.h **** 	{
 132:Middlewares/Third_Party/FreeRTOS/Source/portable/GCC/ARM_CM4F/portmacro.h **** 	uint8_t ucReturn;
 133:Middlewares/Third_Party/FreeRTOS/Source/portable/GCC/ARM_CM4F/portmacro.h **** 
 134:Middlewares/Third_Party/FreeRTOS/Source/portable/GCC/ARM_CM4F/portmacro.h **** 		__asm volatile ( "clz %0, %1" : "=r" ( ucReturn ) : "r" ( ulBitmap ) : "memory" );
 135:Middlewares/Third_Party/FreeRTOS/Source/portable/GCC/ARM_CM4F/portmacro.h **** 		return ucReturn;
 136:Middlewares/Third_Party/FreeRTOS/Source/portable/GCC/ARM_CM4F/portmacro.h **** 	}
 137:Middlewares/Third_Party/FreeRTOS/Source/portable/GCC/ARM_CM4F/portmacro.h **** 
 138:Middlewares/Third_Party/FreeRTOS/Source/portable/GCC/ARM_CM4F/portmacro.h **** 	/* Check the configuration. */
 139:Middlewares/Third_Party/FreeRTOS/Source/portable/GCC/ARM_CM4F/portmacro.h **** 	#if( configMAX_PRIORITIES > 32 )
 140:Middlewares/Third_Party/FreeRTOS/Source/portable/GCC/ARM_CM4F/portmacro.h **** 		#error configUSE_PORT_OPTIMISED_TASK_SELECTION can only be set to 1 when configMAX_PRIORITIES is 
 141:Middlewares/Third_Party/FreeRTOS/Source/portable/GCC/ARM_CM4F/portmacro.h **** 	#endif
 142:Middlewares/Third_Party/FreeRTOS/Source/portable/GCC/ARM_CM4F/portmacro.h **** 
 143:Middlewares/Third_Party/FreeRTOS/Source/portable/GCC/ARM_CM4F/portmacro.h **** 	/* Store/clear the ready priorities in a bit map. */
 144:Middlewares/Third_Party/FreeRTOS/Source/portable/GCC/ARM_CM4F/portmacro.h **** 	#define portRECORD_READY_PRIORITY( uxPriority, uxReadyPriorities ) ( uxReadyPriorities ) |= ( 1UL 
 145:Middlewares/Third_Party/FreeRTOS/Source/portable/GCC/ARM_CM4F/portmacro.h **** 	#define portRESET_READY_PRIORITY( uxPriority, uxReadyPriorities ) ( uxReadyPriorities ) &= ~( 1UL 
 146:Middlewares/Third_Party/FreeRTOS/Source/portable/GCC/ARM_CM4F/portmacro.h **** 
 147:Middlewares/Third_Party/FreeRTOS/Source/portable/GCC/ARM_CM4F/portmacro.h **** 	/*-----------------------------------------------------------*/
 148:Middlewares/Third_Party/FreeRTOS/Source/portable/GCC/ARM_CM4F/portmacro.h **** 
 149:Middlewares/Third_Party/FreeRTOS/Source/portable/GCC/ARM_CM4F/portmacro.h **** 	#define portGET_HIGHEST_PRIORITY( uxTopPriority, uxReadyPriorities ) uxTopPriority = ( 31UL - ( ui
 150:Middlewares/Third_Party/FreeRTOS/Source/portable/GCC/ARM_CM4F/portmacro.h **** 
 151:Middlewares/Third_Party/FreeRTOS/Source/portable/GCC/ARM_CM4F/portmacro.h **** #endif /* configUSE_PORT_OPTIMISED_TASK_SELECTION */
 152:Middlewares/Third_Party/FreeRTOS/Source/portable/GCC/ARM_CM4F/portmacro.h **** 
 153:Middlewares/Third_Party/FreeRTOS/Source/portable/GCC/ARM_CM4F/portmacro.h **** /*-----------------------------------------------------------*/
 154:Middlewares/Third_Party/FreeRTOS/Source/portable/GCC/ARM_CM4F/portmacro.h **** 
 155:Middlewares/Third_Party/FreeRTOS/Source/portable/GCC/ARM_CM4F/portmacro.h **** #ifdef configASSERT
 156:Middlewares/Third_Party/FreeRTOS/Source/portable/GCC/ARM_CM4F/portmacro.h **** 	void vPortValidateInterruptPriority( void );
 157:Middlewares/Third_Party/FreeRTOS/Source/portable/GCC/ARM_CM4F/portmacro.h **** 	#define portASSERT_IF_INTERRUPT_PRIORITY_INVALID() 	vPortValidateInterruptPriority()
ARM GAS  C:\Users\Bunyamin\AppData\Local\Temp\ccFW9f40.s 			page 11


 158:Middlewares/Third_Party/FreeRTOS/Source/portable/GCC/ARM_CM4F/portmacro.h **** #endif
 159:Middlewares/Third_Party/FreeRTOS/Source/portable/GCC/ARM_CM4F/portmacro.h **** 
 160:Middlewares/Third_Party/FreeRTOS/Source/portable/GCC/ARM_CM4F/portmacro.h **** /* portNOP() is not required by this port. */
 161:Middlewares/Third_Party/FreeRTOS/Source/portable/GCC/ARM_CM4F/portmacro.h **** #define portNOP()
 162:Middlewares/Third_Party/FreeRTOS/Source/portable/GCC/ARM_CM4F/portmacro.h **** 
 163:Middlewares/Third_Party/FreeRTOS/Source/portable/GCC/ARM_CM4F/portmacro.h **** #define portINLINE	__inline
 164:Middlewares/Third_Party/FreeRTOS/Source/portable/GCC/ARM_CM4F/portmacro.h **** 
 165:Middlewares/Third_Party/FreeRTOS/Source/portable/GCC/ARM_CM4F/portmacro.h **** #ifndef portFORCE_INLINE
 166:Middlewares/Third_Party/FreeRTOS/Source/portable/GCC/ARM_CM4F/portmacro.h **** 	#define portFORCE_INLINE inline __attribute__(( always_inline))
 167:Middlewares/Third_Party/FreeRTOS/Source/portable/GCC/ARM_CM4F/portmacro.h **** #endif
 168:Middlewares/Third_Party/FreeRTOS/Source/portable/GCC/ARM_CM4F/portmacro.h **** 
 169:Middlewares/Third_Party/FreeRTOS/Source/portable/GCC/ARM_CM4F/portmacro.h **** portFORCE_INLINE static BaseType_t xPortIsInsideInterrupt( void )
 170:Middlewares/Third_Party/FreeRTOS/Source/portable/GCC/ARM_CM4F/portmacro.h **** {
 171:Middlewares/Third_Party/FreeRTOS/Source/portable/GCC/ARM_CM4F/portmacro.h **** uint32_t ulCurrentInterrupt;
 172:Middlewares/Third_Party/FreeRTOS/Source/portable/GCC/ARM_CM4F/portmacro.h **** BaseType_t xReturn;
 173:Middlewares/Third_Party/FreeRTOS/Source/portable/GCC/ARM_CM4F/portmacro.h **** 
 174:Middlewares/Third_Party/FreeRTOS/Source/portable/GCC/ARM_CM4F/portmacro.h **** 	/* Obtain the number of the currently executing interrupt. */
 175:Middlewares/Third_Party/FreeRTOS/Source/portable/GCC/ARM_CM4F/portmacro.h **** 	__asm volatile( "mrs %0, ipsr" : "=r"( ulCurrentInterrupt ) :: "memory" );
 176:Middlewares/Third_Party/FreeRTOS/Source/portable/GCC/ARM_CM4F/portmacro.h **** 
 177:Middlewares/Third_Party/FreeRTOS/Source/portable/GCC/ARM_CM4F/portmacro.h **** 	if( ulCurrentInterrupt == 0 )
 178:Middlewares/Third_Party/FreeRTOS/Source/portable/GCC/ARM_CM4F/portmacro.h **** 	{
 179:Middlewares/Third_Party/FreeRTOS/Source/portable/GCC/ARM_CM4F/portmacro.h **** 		xReturn = pdFALSE;
 180:Middlewares/Third_Party/FreeRTOS/Source/portable/GCC/ARM_CM4F/portmacro.h **** 	}
 181:Middlewares/Third_Party/FreeRTOS/Source/portable/GCC/ARM_CM4F/portmacro.h **** 	else
 182:Middlewares/Third_Party/FreeRTOS/Source/portable/GCC/ARM_CM4F/portmacro.h **** 	{
 183:Middlewares/Third_Party/FreeRTOS/Source/portable/GCC/ARM_CM4F/portmacro.h **** 		xReturn = pdTRUE;
 184:Middlewares/Third_Party/FreeRTOS/Source/portable/GCC/ARM_CM4F/portmacro.h **** 	}
 185:Middlewares/Third_Party/FreeRTOS/Source/portable/GCC/ARM_CM4F/portmacro.h **** 
 186:Middlewares/Third_Party/FreeRTOS/Source/portable/GCC/ARM_CM4F/portmacro.h **** 	return xReturn;
 187:Middlewares/Third_Party/FreeRTOS/Source/portable/GCC/ARM_CM4F/portmacro.h **** }
 188:Middlewares/Third_Party/FreeRTOS/Source/portable/GCC/ARM_CM4F/portmacro.h **** 
 189:Middlewares/Third_Party/FreeRTOS/Source/portable/GCC/ARM_CM4F/portmacro.h **** /*-----------------------------------------------------------*/
 190:Middlewares/Third_Party/FreeRTOS/Source/portable/GCC/ARM_CM4F/portmacro.h **** 
 191:Middlewares/Third_Party/FreeRTOS/Source/portable/GCC/ARM_CM4F/portmacro.h **** portFORCE_INLINE static void vPortRaiseBASEPRI( void )
 192:Middlewares/Third_Party/FreeRTOS/Source/portable/GCC/ARM_CM4F/portmacro.h **** {
 193:Middlewares/Third_Party/FreeRTOS/Source/portable/GCC/ARM_CM4F/portmacro.h **** uint32_t ulNewBASEPRI;
 194:Middlewares/Third_Party/FreeRTOS/Source/portable/GCC/ARM_CM4F/portmacro.h **** 
 195:Middlewares/Third_Party/FreeRTOS/Source/portable/GCC/ARM_CM4F/portmacro.h **** 	__asm volatile
 143              		.loc 2 195 2
 144              		.syntax unified
 145              	@ 195 "Middlewares/Third_Party/FreeRTOS/Source/portable/GCC/ARM_CM4F/portmacro.h" 1
 146 0060 4FF05003 			mov r3, #80												
 147 0064 83F31188 		msr basepri, r3											
 148 0068 BFF36F8F 		isb														
 149 006c BFF34F8F 		dsb														
 150              	
 151              	@ 0 "" 2
 152              		.thumb
 153              		.syntax unified
 154 0070 3B61     		str	r3, [r7, #16]
 196:Middlewares/Third_Party/FreeRTOS/Source/portable/GCC/ARM_CM4F/portmacro.h **** 	(
 197:Middlewares/Third_Party/FreeRTOS/Source/portable/GCC/ARM_CM4F/portmacro.h **** 		"	mov %0, %1												\n"	\
 198:Middlewares/Third_Party/FreeRTOS/Source/portable/GCC/ARM_CM4F/portmacro.h **** 		"	msr basepri, %0											\n" \
 199:Middlewares/Third_Party/FreeRTOS/Source/portable/GCC/ARM_CM4F/portmacro.h **** 		"	isb														\n" \
 200:Middlewares/Third_Party/FreeRTOS/Source/portable/GCC/ARM_CM4F/portmacro.h **** 		"	dsb														\n" \
 201:Middlewares/Third_Party/FreeRTOS/Source/portable/GCC/ARM_CM4F/portmacro.h **** 		:"=r" (ulNewBASEPRI) : "i" ( configMAX_SYSCALL_INTERRUPT_PRIORITY ) : "memory"
 202:Middlewares/Third_Party/FreeRTOS/Source/portable/GCC/ARM_CM4F/portmacro.h **** 	);
ARM GAS  C:\Users\Bunyamin\AppData\Local\Temp\ccFW9f40.s 			page 12


 203:Middlewares/Third_Party/FreeRTOS/Source/portable/GCC/ARM_CM4F/portmacro.h **** }
 155              		.loc 2 203 1
 156 0072 00BF     		nop
 157              	.L5:
 158              	.LBE47:
 159              	.LBE46:
 160              		.loc 1 275 2 discriminator 1
 161 0074 FEE7     		b	.L5
 162              	.L4:
 276:Middlewares/Third_Party/FreeRTOS/Source/timers.c **** 	return xReturn;
 163              		.loc 1 276 9
 164 0076 7B69     		ldr	r3, [r7, #20]
 277:Middlewares/Third_Party/FreeRTOS/Source/timers.c **** }
 165              		.loc 1 277 1
 166 0078 1846     		mov	r0, r3
 167 007a 1837     		adds	r7, r7, #24
 168              	.LCFI3:
 169              		.cfi_def_cfa_offset 8
 170 007c BD46     		mov	sp, r7
 171              	.LCFI4:
 172              		.cfi_def_cfa_register 13
 173              		@ sp needed
 174 007e 80BD     		pop	{r7, pc}
 175              	.L8:
 176              		.align	2
 177              	.L7:
 178 0080 00000000 		.word	xTimerQueue
 179 0084 00000000 		.word	.LC0
 180 0088 00000000 		.word	prvTimerTask
 181 008c 00000000 		.word	xTimerTaskHandle
 182              		.cfi_endproc
 183              	.LFE4:
 185              		.section	.text.xTimerCreate,"ax",%progbits
 186              		.align	1
 187              		.global	xTimerCreate
 188              		.syntax unified
 189              		.thumb
 190              		.thumb_func
 192              	xTimerCreate:
 193              	.LFB5:
 278:Middlewares/Third_Party/FreeRTOS/Source/timers.c **** /*-----------------------------------------------------------*/
 279:Middlewares/Third_Party/FreeRTOS/Source/timers.c **** 
 280:Middlewares/Third_Party/FreeRTOS/Source/timers.c **** #if( configSUPPORT_DYNAMIC_ALLOCATION == 1 )
 281:Middlewares/Third_Party/FreeRTOS/Source/timers.c **** 
 282:Middlewares/Third_Party/FreeRTOS/Source/timers.c **** 	TimerHandle_t xTimerCreate(	const char * const pcTimerName,			/*lint !e971 Unqualified char types 
 283:Middlewares/Third_Party/FreeRTOS/Source/timers.c **** 								const TickType_t xTimerPeriodInTicks,
 284:Middlewares/Third_Party/FreeRTOS/Source/timers.c **** 								const UBaseType_t uxAutoReload,
 285:Middlewares/Third_Party/FreeRTOS/Source/timers.c **** 								void * const pvTimerID,
 286:Middlewares/Third_Party/FreeRTOS/Source/timers.c **** 								TimerCallbackFunction_t pxCallbackFunction )
 287:Middlewares/Third_Party/FreeRTOS/Source/timers.c **** 	{
 194              		.loc 1 287 2
 195              		.cfi_startproc
 196              		@ args = 4, pretend = 0, frame = 24
 197              		@ frame_needed = 1, uses_anonymous_args = 0
 198 0000 80B5     		push	{r7, lr}
 199              	.LCFI5:
 200              		.cfi_def_cfa_offset 8
ARM GAS  C:\Users\Bunyamin\AppData\Local\Temp\ccFW9f40.s 			page 13


 201              		.cfi_offset 7, -8
 202              		.cfi_offset 14, -4
 203 0002 88B0     		sub	sp, sp, #32
 204              	.LCFI6:
 205              		.cfi_def_cfa_offset 40
 206 0004 02AF     		add	r7, sp, #8
 207              	.LCFI7:
 208              		.cfi_def_cfa 7, 32
 209 0006 F860     		str	r0, [r7, #12]
 210 0008 B960     		str	r1, [r7, #8]
 211 000a 7A60     		str	r2, [r7, #4]
 212 000c 3B60     		str	r3, [r7]
 288:Middlewares/Third_Party/FreeRTOS/Source/timers.c **** 	Timer_t *pxNewTimer;
 289:Middlewares/Third_Party/FreeRTOS/Source/timers.c **** 
 290:Middlewares/Third_Party/FreeRTOS/Source/timers.c **** 		pxNewTimer = ( Timer_t * ) pvPortMalloc( sizeof( Timer_t ) ); /*lint !e9087 !e9079 All values ret
 213              		.loc 1 290 30
 214 000e 2C20     		movs	r0, #44
 215 0010 FFF7FEFF 		bl	pvPortMalloc
 216 0014 7861     		str	r0, [r7, #20]
 291:Middlewares/Third_Party/FreeRTOS/Source/timers.c **** 
 292:Middlewares/Third_Party/FreeRTOS/Source/timers.c **** 		if( pxNewTimer != NULL )
 217              		.loc 1 292 5
 218 0016 7B69     		ldr	r3, [r7, #20]
 219 0018 002B     		cmp	r3, #0
 220 001a 0DD0     		beq	.L10
 293:Middlewares/Third_Party/FreeRTOS/Source/timers.c **** 		{
 294:Middlewares/Third_Party/FreeRTOS/Source/timers.c **** 			/* Status is thus far zero as the timer is not created statically
 295:Middlewares/Third_Party/FreeRTOS/Source/timers.c **** 			and has not been started.  The auto-reload bit may get set in
 296:Middlewares/Third_Party/FreeRTOS/Source/timers.c **** 			prvInitialiseNewTimer. */
 297:Middlewares/Third_Party/FreeRTOS/Source/timers.c **** 			pxNewTimer->ucStatus = 0x00;
 221              		.loc 1 297 25
 222 001c 7B69     		ldr	r3, [r7, #20]
 223 001e 0022     		movs	r2, #0
 224 0020 83F82820 		strb	r2, [r3, #40]
 298:Middlewares/Third_Party/FreeRTOS/Source/timers.c **** 			prvInitialiseNewTimer( pcTimerName, xTimerPeriodInTicks, uxAutoReload, pvTimerID, pxCallbackFunc
 225              		.loc 1 298 4
 226 0024 7B69     		ldr	r3, [r7, #20]
 227 0026 0193     		str	r3, [sp, #4]
 228 0028 3B6A     		ldr	r3, [r7, #32]
 229 002a 0093     		str	r3, [sp]
 230 002c 3B68     		ldr	r3, [r7]
 231 002e 7A68     		ldr	r2, [r7, #4]
 232 0030 B968     		ldr	r1, [r7, #8]
 233 0032 F868     		ldr	r0, [r7, #12]
 234 0034 FFF7FEFF 		bl	prvInitialiseNewTimer
 235              	.L10:
 299:Middlewares/Third_Party/FreeRTOS/Source/timers.c **** 		}
 300:Middlewares/Third_Party/FreeRTOS/Source/timers.c **** 
 301:Middlewares/Third_Party/FreeRTOS/Source/timers.c **** 		return pxNewTimer;
 236              		.loc 1 301 10
 237 0038 7B69     		ldr	r3, [r7, #20]
 302:Middlewares/Third_Party/FreeRTOS/Source/timers.c **** 	}
 238              		.loc 1 302 2
 239 003a 1846     		mov	r0, r3
 240 003c 1837     		adds	r7, r7, #24
 241              	.LCFI8:
 242              		.cfi_def_cfa_offset 8
ARM GAS  C:\Users\Bunyamin\AppData\Local\Temp\ccFW9f40.s 			page 14


 243 003e BD46     		mov	sp, r7
 244              	.LCFI9:
 245              		.cfi_def_cfa_register 13
 246              		@ sp needed
 247 0040 80BD     		pop	{r7, pc}
 248              		.cfi_endproc
 249              	.LFE5:
 251              		.section	.text.xTimerCreateStatic,"ax",%progbits
 252              		.align	1
 253              		.global	xTimerCreateStatic
 254              		.syntax unified
 255              		.thumb
 256              		.thumb_func
 258              	xTimerCreateStatic:
 259              	.LFB6:
 303:Middlewares/Third_Party/FreeRTOS/Source/timers.c **** 
 304:Middlewares/Third_Party/FreeRTOS/Source/timers.c **** #endif /* configSUPPORT_DYNAMIC_ALLOCATION */
 305:Middlewares/Third_Party/FreeRTOS/Source/timers.c **** /*-----------------------------------------------------------*/
 306:Middlewares/Third_Party/FreeRTOS/Source/timers.c **** 
 307:Middlewares/Third_Party/FreeRTOS/Source/timers.c **** #if( configSUPPORT_STATIC_ALLOCATION == 1 )
 308:Middlewares/Third_Party/FreeRTOS/Source/timers.c **** 
 309:Middlewares/Third_Party/FreeRTOS/Source/timers.c **** 	TimerHandle_t xTimerCreateStatic(	const char * const pcTimerName,		/*lint !e971 Unqualified char t
 310:Middlewares/Third_Party/FreeRTOS/Source/timers.c **** 										const TickType_t xTimerPeriodInTicks,
 311:Middlewares/Third_Party/FreeRTOS/Source/timers.c **** 										const UBaseType_t uxAutoReload,
 312:Middlewares/Third_Party/FreeRTOS/Source/timers.c **** 										void * const pvTimerID,
 313:Middlewares/Third_Party/FreeRTOS/Source/timers.c **** 										TimerCallbackFunction_t pxCallbackFunction,
 314:Middlewares/Third_Party/FreeRTOS/Source/timers.c **** 										StaticTimer_t *pxTimerBuffer )
 315:Middlewares/Third_Party/FreeRTOS/Source/timers.c **** 	{
 260              		.loc 1 315 2
 261              		.cfi_startproc
 262              		@ args = 8, pretend = 0, frame = 32
 263              		@ frame_needed = 1, uses_anonymous_args = 0
 264 0000 80B5     		push	{r7, lr}
 265              	.LCFI10:
 266              		.cfi_def_cfa_offset 8
 267              		.cfi_offset 7, -8
 268              		.cfi_offset 14, -4
 269 0002 8AB0     		sub	sp, sp, #40
 270              	.LCFI11:
 271              		.cfi_def_cfa_offset 48
 272 0004 02AF     		add	r7, sp, #8
 273              	.LCFI12:
 274              		.cfi_def_cfa 7, 40
 275 0006 F860     		str	r0, [r7, #12]
 276 0008 B960     		str	r1, [r7, #8]
 277 000a 7A60     		str	r2, [r7, #4]
 278 000c 3B60     		str	r3, [r7]
 279              	.LBB48:
 316:Middlewares/Third_Party/FreeRTOS/Source/timers.c **** 	Timer_t *pxNewTimer;
 317:Middlewares/Third_Party/FreeRTOS/Source/timers.c **** 
 318:Middlewares/Third_Party/FreeRTOS/Source/timers.c **** 		#if( configASSERT_DEFINED == 1 )
 319:Middlewares/Third_Party/FreeRTOS/Source/timers.c **** 		{
 320:Middlewares/Third_Party/FreeRTOS/Source/timers.c **** 			/* Sanity check that the size of the structure used to declare a
 321:Middlewares/Third_Party/FreeRTOS/Source/timers.c **** 			variable of type StaticTimer_t equals the size of the real timer
 322:Middlewares/Third_Party/FreeRTOS/Source/timers.c **** 			structure. */
 323:Middlewares/Third_Party/FreeRTOS/Source/timers.c **** 			volatile size_t xSize = sizeof( StaticTimer_t );
 280              		.loc 1 323 20
ARM GAS  C:\Users\Bunyamin\AppData\Local\Temp\ccFW9f40.s 			page 15


 281 000e 2C23     		movs	r3, #44
 282 0010 3B61     		str	r3, [r7, #16]
 324:Middlewares/Third_Party/FreeRTOS/Source/timers.c **** 			configASSERT( xSize == sizeof( Timer_t ) );
 283              		.loc 1 324 4
 284 0012 3B69     		ldr	r3, [r7, #16]
 285 0014 2C2B     		cmp	r3, #44
 286 0016 0AD0     		beq	.L13
 287              	.LBB49:
 288              	.LBB50:
 195:Middlewares/Third_Party/FreeRTOS/Source/portable/GCC/ARM_CM4F/portmacro.h **** 	(
 289              		.loc 2 195 2
 290              		.syntax unified
 291              	@ 195 "Middlewares/Third_Party/FreeRTOS/Source/portable/GCC/ARM_CM4F/portmacro.h" 1
 292 0018 4FF05003 			mov r3, #80												
 293 001c 83F31188 		msr basepri, r3											
 294 0020 BFF36F8F 		isb														
 295 0024 BFF34F8F 		dsb														
 296              	
 297              	@ 0 "" 2
 298              		.thumb
 299              		.syntax unified
 300 0028 BB61     		str	r3, [r7, #24]
 301              		.loc 2 203 1
 302 002a 00BF     		nop
 303              	.L14:
 304              	.LBE50:
 305              	.LBE49:
 306              		.loc 1 324 4 discriminator 1
 307 002c FEE7     		b	.L14
 308              	.L13:
 325:Middlewares/Third_Party/FreeRTOS/Source/timers.c **** 			( void ) xSize; /* Keeps lint quiet when configASSERT() is not defined. */
 309              		.loc 1 325 4
 310 002e 3B69     		ldr	r3, [r7, #16]
 311              	.LBE48:
 326:Middlewares/Third_Party/FreeRTOS/Source/timers.c **** 		}
 327:Middlewares/Third_Party/FreeRTOS/Source/timers.c **** 		#endif /* configASSERT_DEFINED */
 328:Middlewares/Third_Party/FreeRTOS/Source/timers.c **** 
 329:Middlewares/Third_Party/FreeRTOS/Source/timers.c **** 		/* A pointer to a StaticTimer_t structure MUST be provided, use it. */
 330:Middlewares/Third_Party/FreeRTOS/Source/timers.c **** 		configASSERT( pxTimerBuffer );
 312              		.loc 1 330 3
 313 0030 FB6A     		ldr	r3, [r7, #44]
 314 0032 002B     		cmp	r3, #0
 315 0034 0AD1     		bne	.L15
 316              	.LBB51:
 317              	.LBB52:
 195:Middlewares/Third_Party/FreeRTOS/Source/portable/GCC/ARM_CM4F/portmacro.h **** 	(
 318              		.loc 2 195 2
 319              		.syntax unified
 320              	@ 195 "Middlewares/Third_Party/FreeRTOS/Source/portable/GCC/ARM_CM4F/portmacro.h" 1
 321 0036 4FF05003 			mov r3, #80												
 322 003a 83F31188 		msr basepri, r3											
 323 003e BFF36F8F 		isb														
 324 0042 BFF34F8F 		dsb														
 325              	
 326              	@ 0 "" 2
 327              		.thumb
 328              		.syntax unified
ARM GAS  C:\Users\Bunyamin\AppData\Local\Temp\ccFW9f40.s 			page 16


 329 0046 7B61     		str	r3, [r7, #20]
 330              		.loc 2 203 1
 331 0048 00BF     		nop
 332              	.L16:
 333              	.LBE52:
 334              	.LBE51:
 335              		.loc 1 330 3 discriminator 2
 336 004a FEE7     		b	.L16
 337              	.L15:
 331:Middlewares/Third_Party/FreeRTOS/Source/timers.c **** 		pxNewTimer = ( Timer_t * ) pxTimerBuffer; /*lint !e740 !e9087 StaticTimer_t is a pointer to a Tim
 338              		.loc 1 331 14
 339 004c FB6A     		ldr	r3, [r7, #44]
 340 004e FB61     		str	r3, [r7, #28]
 332:Middlewares/Third_Party/FreeRTOS/Source/timers.c **** 
 333:Middlewares/Third_Party/FreeRTOS/Source/timers.c **** 		if( pxNewTimer != NULL )
 341              		.loc 1 333 5
 342 0050 FB69     		ldr	r3, [r7, #28]
 343 0052 002B     		cmp	r3, #0
 344 0054 0DD0     		beq	.L17
 334:Middlewares/Third_Party/FreeRTOS/Source/timers.c **** 		{
 335:Middlewares/Third_Party/FreeRTOS/Source/timers.c **** 			/* Timers can be created statically or dynamically so note this
 336:Middlewares/Third_Party/FreeRTOS/Source/timers.c **** 			timer was created statically in case it is later deleted.  The
 337:Middlewares/Third_Party/FreeRTOS/Source/timers.c **** 			auto-reload bit may get set in prvInitialiseNewTimer(). */
 338:Middlewares/Third_Party/FreeRTOS/Source/timers.c **** 			pxNewTimer->ucStatus = tmrSTATUS_IS_STATICALLY_ALLOCATED;
 345              		.loc 1 338 25
 346 0056 FB69     		ldr	r3, [r7, #28]
 347 0058 0222     		movs	r2, #2
 348 005a 83F82820 		strb	r2, [r3, #40]
 339:Middlewares/Third_Party/FreeRTOS/Source/timers.c **** 
 340:Middlewares/Third_Party/FreeRTOS/Source/timers.c **** 			prvInitialiseNewTimer( pcTimerName, xTimerPeriodInTicks, uxAutoReload, pvTimerID, pxCallbackFunc
 349              		.loc 1 340 4
 350 005e FB69     		ldr	r3, [r7, #28]
 351 0060 0193     		str	r3, [sp, #4]
 352 0062 BB6A     		ldr	r3, [r7, #40]
 353 0064 0093     		str	r3, [sp]
 354 0066 3B68     		ldr	r3, [r7]
 355 0068 7A68     		ldr	r2, [r7, #4]
 356 006a B968     		ldr	r1, [r7, #8]
 357 006c F868     		ldr	r0, [r7, #12]
 358 006e FFF7FEFF 		bl	prvInitialiseNewTimer
 359              	.L17:
 341:Middlewares/Third_Party/FreeRTOS/Source/timers.c **** 		}
 342:Middlewares/Third_Party/FreeRTOS/Source/timers.c **** 
 343:Middlewares/Third_Party/FreeRTOS/Source/timers.c **** 		return pxNewTimer;
 360              		.loc 1 343 10
 361 0072 FB69     		ldr	r3, [r7, #28]
 344:Middlewares/Third_Party/FreeRTOS/Source/timers.c **** 	}
 362              		.loc 1 344 2
 363 0074 1846     		mov	r0, r3
 364 0076 2037     		adds	r7, r7, #32
 365              	.LCFI13:
 366              		.cfi_def_cfa_offset 8
 367 0078 BD46     		mov	sp, r7
 368              	.LCFI14:
 369              		.cfi_def_cfa_register 13
 370              		@ sp needed
 371 007a 80BD     		pop	{r7, pc}
ARM GAS  C:\Users\Bunyamin\AppData\Local\Temp\ccFW9f40.s 			page 17


 372              		.cfi_endproc
 373              	.LFE6:
 375              		.section	.text.prvInitialiseNewTimer,"ax",%progbits
 376              		.align	1
 377              		.syntax unified
 378              		.thumb
 379              		.thumb_func
 381              	prvInitialiseNewTimer:
 382              	.LFB7:
 345:Middlewares/Third_Party/FreeRTOS/Source/timers.c **** 
 346:Middlewares/Third_Party/FreeRTOS/Source/timers.c **** #endif /* configSUPPORT_STATIC_ALLOCATION */
 347:Middlewares/Third_Party/FreeRTOS/Source/timers.c **** /*-----------------------------------------------------------*/
 348:Middlewares/Third_Party/FreeRTOS/Source/timers.c **** 
 349:Middlewares/Third_Party/FreeRTOS/Source/timers.c **** static void prvInitialiseNewTimer(	const char * const pcTimerName,			/*lint !e971 Unqualified char 
 350:Middlewares/Third_Party/FreeRTOS/Source/timers.c **** 									const TickType_t xTimerPeriodInTicks,
 351:Middlewares/Third_Party/FreeRTOS/Source/timers.c **** 									const UBaseType_t uxAutoReload,
 352:Middlewares/Third_Party/FreeRTOS/Source/timers.c **** 									void * const pvTimerID,
 353:Middlewares/Third_Party/FreeRTOS/Source/timers.c **** 									TimerCallbackFunction_t pxCallbackFunction,
 354:Middlewares/Third_Party/FreeRTOS/Source/timers.c **** 									Timer_t *pxNewTimer )
 355:Middlewares/Third_Party/FreeRTOS/Source/timers.c **** {
 383              		.loc 1 355 1
 384              		.cfi_startproc
 385              		@ args = 8, pretend = 0, frame = 24
 386              		@ frame_needed = 1, uses_anonymous_args = 0
 387 0000 80B5     		push	{r7, lr}
 388              	.LCFI15:
 389              		.cfi_def_cfa_offset 8
 390              		.cfi_offset 7, -8
 391              		.cfi_offset 14, -4
 392 0002 86B0     		sub	sp, sp, #24
 393              	.LCFI16:
 394              		.cfi_def_cfa_offset 32
 395 0004 00AF     		add	r7, sp, #0
 396              	.LCFI17:
 397              		.cfi_def_cfa_register 7
 398 0006 F860     		str	r0, [r7, #12]
 399 0008 B960     		str	r1, [r7, #8]
 400 000a 7A60     		str	r2, [r7, #4]
 401 000c 3B60     		str	r3, [r7]
 356:Middlewares/Third_Party/FreeRTOS/Source/timers.c **** 	/* 0 is not a valid value for xTimerPeriodInTicks. */
 357:Middlewares/Third_Party/FreeRTOS/Source/timers.c **** 	configASSERT( ( xTimerPeriodInTicks > 0 ) );
 402              		.loc 1 357 2
 403 000e BB68     		ldr	r3, [r7, #8]
 404 0010 002B     		cmp	r3, #0
 405 0012 0AD1     		bne	.L20
 406              	.LBB53:
 407              	.LBB54:
 195:Middlewares/Third_Party/FreeRTOS/Source/portable/GCC/ARM_CM4F/portmacro.h **** 	(
 408              		.loc 2 195 2
 409              		.syntax unified
 410              	@ 195 "Middlewares/Third_Party/FreeRTOS/Source/portable/GCC/ARM_CM4F/portmacro.h" 1
 411 0014 4FF05003 			mov r3, #80												
 412 0018 83F31188 		msr basepri, r3											
 413 001c BFF36F8F 		isb														
 414 0020 BFF34F8F 		dsb														
 415              	
 416              	@ 0 "" 2
ARM GAS  C:\Users\Bunyamin\AppData\Local\Temp\ccFW9f40.s 			page 18


 417              		.thumb
 418              		.syntax unified
 419 0024 7B61     		str	r3, [r7, #20]
 420              		.loc 2 203 1
 421 0026 00BF     		nop
 422              	.L21:
 423              	.LBE54:
 424              	.LBE53:
 425              		.loc 1 357 2 discriminator 1
 426 0028 FEE7     		b	.L21
 427              	.L20:
 358:Middlewares/Third_Party/FreeRTOS/Source/timers.c **** 
 359:Middlewares/Third_Party/FreeRTOS/Source/timers.c **** 	if( pxNewTimer != NULL )
 428              		.loc 1 359 4
 429 002a 7B6A     		ldr	r3, [r7, #36]
 430 002c 002B     		cmp	r3, #0
 431 002e 1ED0     		beq	.L23
 360:Middlewares/Third_Party/FreeRTOS/Source/timers.c **** 	{
 361:Middlewares/Third_Party/FreeRTOS/Source/timers.c **** 		/* Ensure the infrastructure used by the timer service task has been
 362:Middlewares/Third_Party/FreeRTOS/Source/timers.c **** 		created/initialised. */
 363:Middlewares/Third_Party/FreeRTOS/Source/timers.c **** 		prvCheckForValidListAndQueue();
 432              		.loc 1 363 3
 433 0030 FFF7FEFF 		bl	prvCheckForValidListAndQueue
 364:Middlewares/Third_Party/FreeRTOS/Source/timers.c **** 
 365:Middlewares/Third_Party/FreeRTOS/Source/timers.c **** 		/* Initialise the timer structure members using the function
 366:Middlewares/Third_Party/FreeRTOS/Source/timers.c **** 		parameters. */
 367:Middlewares/Third_Party/FreeRTOS/Source/timers.c **** 		pxNewTimer->pcTimerName = pcTimerName;
 434              		.loc 1 367 27
 435 0034 7B6A     		ldr	r3, [r7, #36]
 436 0036 FA68     		ldr	r2, [r7, #12]
 437 0038 1A60     		str	r2, [r3]
 368:Middlewares/Third_Party/FreeRTOS/Source/timers.c **** 		pxNewTimer->xTimerPeriodInTicks = xTimerPeriodInTicks;
 438              		.loc 1 368 35
 439 003a 7B6A     		ldr	r3, [r7, #36]
 440 003c BA68     		ldr	r2, [r7, #8]
 441 003e 9A61     		str	r2, [r3, #24]
 369:Middlewares/Third_Party/FreeRTOS/Source/timers.c **** 		pxNewTimer->pvTimerID = pvTimerID;
 442              		.loc 1 369 25
 443 0040 7B6A     		ldr	r3, [r7, #36]
 444 0042 3A68     		ldr	r2, [r7]
 445 0044 DA61     		str	r2, [r3, #28]
 370:Middlewares/Third_Party/FreeRTOS/Source/timers.c **** 		pxNewTimer->pxCallbackFunction = pxCallbackFunction;
 446              		.loc 1 370 34
 447 0046 7B6A     		ldr	r3, [r7, #36]
 448 0048 3A6A     		ldr	r2, [r7, #32]
 449 004a 1A62     		str	r2, [r3, #32]
 371:Middlewares/Third_Party/FreeRTOS/Source/timers.c **** 		vListInitialiseItem( &( pxNewTimer->xTimerListItem ) );
 450              		.loc 1 371 3
 451 004c 7B6A     		ldr	r3, [r7, #36]
 452 004e 0433     		adds	r3, r3, #4
 453 0050 1846     		mov	r0, r3
 454 0052 FFF7FEFF 		bl	vListInitialiseItem
 372:Middlewares/Third_Party/FreeRTOS/Source/timers.c **** 		if( uxAutoReload != pdFALSE )
 455              		.loc 1 372 5
 456 0056 7B68     		ldr	r3, [r7, #4]
 457 0058 002B     		cmp	r3, #0
 458 005a 08D0     		beq	.L23
ARM GAS  C:\Users\Bunyamin\AppData\Local\Temp\ccFW9f40.s 			page 19


 373:Middlewares/Third_Party/FreeRTOS/Source/timers.c **** 		{
 374:Middlewares/Third_Party/FreeRTOS/Source/timers.c **** 			pxNewTimer->ucStatus |= tmrSTATUS_IS_AUTORELOAD;
 459              		.loc 1 374 25
 460 005c 7B6A     		ldr	r3, [r7, #36]
 461 005e 93F82830 		ldrb	r3, [r3, #40]	@ zero_extendqisi2
 462 0062 43F00403 		orr	r3, r3, #4
 463 0066 DAB2     		uxtb	r2, r3
 464 0068 7B6A     		ldr	r3, [r7, #36]
 465 006a 83F82820 		strb	r2, [r3, #40]
 466              	.L23:
 375:Middlewares/Third_Party/FreeRTOS/Source/timers.c **** 		}
 376:Middlewares/Third_Party/FreeRTOS/Source/timers.c **** 		traceTIMER_CREATE( pxNewTimer );
 377:Middlewares/Third_Party/FreeRTOS/Source/timers.c **** 	}
 378:Middlewares/Third_Party/FreeRTOS/Source/timers.c **** }
 467              		.loc 1 378 1
 468 006e 00BF     		nop
 469 0070 1837     		adds	r7, r7, #24
 470              	.LCFI18:
 471              		.cfi_def_cfa_offset 8
 472 0072 BD46     		mov	sp, r7
 473              	.LCFI19:
 474              		.cfi_def_cfa_register 13
 475              		@ sp needed
 476 0074 80BD     		pop	{r7, pc}
 477              		.cfi_endproc
 478              	.LFE7:
 480              		.section	.text.xTimerGenericCommand,"ax",%progbits
 481              		.align	1
 482              		.global	xTimerGenericCommand
 483              		.syntax unified
 484              		.thumb
 485              		.thumb_func
 487              	xTimerGenericCommand:
 488              	.LFB8:
 379:Middlewares/Third_Party/FreeRTOS/Source/timers.c **** /*-----------------------------------------------------------*/
 380:Middlewares/Third_Party/FreeRTOS/Source/timers.c **** 
 381:Middlewares/Third_Party/FreeRTOS/Source/timers.c **** BaseType_t xTimerGenericCommand( TimerHandle_t xTimer, const BaseType_t xCommandID, const TickType_
 382:Middlewares/Third_Party/FreeRTOS/Source/timers.c **** {
 489              		.loc 1 382 1
 490              		.cfi_startproc
 491              		@ args = 4, pretend = 0, frame = 40
 492              		@ frame_needed = 1, uses_anonymous_args = 0
 493 0000 80B5     		push	{r7, lr}
 494              	.LCFI20:
 495              		.cfi_def_cfa_offset 8
 496              		.cfi_offset 7, -8
 497              		.cfi_offset 14, -4
 498 0002 8AB0     		sub	sp, sp, #40
 499              	.LCFI21:
 500              		.cfi_def_cfa_offset 48
 501 0004 00AF     		add	r7, sp, #0
 502              	.LCFI22:
 503              		.cfi_def_cfa_register 7
 504 0006 F860     		str	r0, [r7, #12]
 505 0008 B960     		str	r1, [r7, #8]
 506 000a 7A60     		str	r2, [r7, #4]
 507 000c 3B60     		str	r3, [r7]
ARM GAS  C:\Users\Bunyamin\AppData\Local\Temp\ccFW9f40.s 			page 20


 383:Middlewares/Third_Party/FreeRTOS/Source/timers.c **** BaseType_t xReturn = pdFAIL;
 508              		.loc 1 383 12
 509 000e 0023     		movs	r3, #0
 510 0010 7B62     		str	r3, [r7, #36]
 384:Middlewares/Third_Party/FreeRTOS/Source/timers.c **** DaemonTaskMessage_t xMessage;
 385:Middlewares/Third_Party/FreeRTOS/Source/timers.c **** 
 386:Middlewares/Third_Party/FreeRTOS/Source/timers.c **** 	configASSERT( xTimer );
 511              		.loc 1 386 2
 512 0012 FB68     		ldr	r3, [r7, #12]
 513 0014 002B     		cmp	r3, #0
 514 0016 0AD1     		bne	.L25
 515              	.LBB55:
 516              	.LBB56:
 195:Middlewares/Third_Party/FreeRTOS/Source/portable/GCC/ARM_CM4F/portmacro.h **** 	(
 517              		.loc 2 195 2
 518              		.syntax unified
 519              	@ 195 "Middlewares/Third_Party/FreeRTOS/Source/portable/GCC/ARM_CM4F/portmacro.h" 1
 520 0018 4FF05003 			mov r3, #80												
 521 001c 83F31188 		msr basepri, r3											
 522 0020 BFF36F8F 		isb														
 523 0024 BFF34F8F 		dsb														
 524              	
 525              	@ 0 "" 2
 526              		.thumb
 527              		.syntax unified
 528 0028 3B62     		str	r3, [r7, #32]
 529              		.loc 2 203 1
 530 002a 00BF     		nop
 531              	.L26:
 532              	.LBE56:
 533              	.LBE55:
 534              		.loc 1 386 2 discriminator 1
 535 002c FEE7     		b	.L26
 536              	.L25:
 387:Middlewares/Third_Party/FreeRTOS/Source/timers.c **** 
 388:Middlewares/Third_Party/FreeRTOS/Source/timers.c **** 	/* Send a message to the timer service task to perform a particular action
 389:Middlewares/Third_Party/FreeRTOS/Source/timers.c **** 	on a particular timer definition. */
 390:Middlewares/Third_Party/FreeRTOS/Source/timers.c **** 	if( xTimerQueue != NULL )
 537              		.loc 1 390 18
 538 002e 1A4B     		ldr	r3, .L31
 539 0030 1B68     		ldr	r3, [r3]
 540              		.loc 1 390 4
 541 0032 002B     		cmp	r3, #0
 542 0034 2AD0     		beq	.L27
 391:Middlewares/Third_Party/FreeRTOS/Source/timers.c **** 	{
 392:Middlewares/Third_Party/FreeRTOS/Source/timers.c **** 		/* Send a command to the timer service task to start the xTimer timer. */
 393:Middlewares/Third_Party/FreeRTOS/Source/timers.c **** 		xMessage.xMessageID = xCommandID;
 543              		.loc 1 393 23
 544 0036 BB68     		ldr	r3, [r7, #8]
 545 0038 3B61     		str	r3, [r7, #16]
 394:Middlewares/Third_Party/FreeRTOS/Source/timers.c **** 		xMessage.u.xTimerParameters.xMessageValue = xOptionalValue;
 546              		.loc 1 394 45
 547 003a 7B68     		ldr	r3, [r7, #4]
 548 003c 7B61     		str	r3, [r7, #20]
 395:Middlewares/Third_Party/FreeRTOS/Source/timers.c **** 		xMessage.u.xTimerParameters.pxTimer = xTimer;
 549              		.loc 1 395 39
 550 003e FB68     		ldr	r3, [r7, #12]
ARM GAS  C:\Users\Bunyamin\AppData\Local\Temp\ccFW9f40.s 			page 21


 551 0040 BB61     		str	r3, [r7, #24]
 396:Middlewares/Third_Party/FreeRTOS/Source/timers.c **** 
 397:Middlewares/Third_Party/FreeRTOS/Source/timers.c **** 		if( xCommandID < tmrFIRST_FROM_ISR_COMMAND )
 552              		.loc 1 397 5
 553 0042 BB68     		ldr	r3, [r7, #8]
 554 0044 052B     		cmp	r3, #5
 555 0046 18DC     		bgt	.L28
 398:Middlewares/Third_Party/FreeRTOS/Source/timers.c **** 		{
 399:Middlewares/Third_Party/FreeRTOS/Source/timers.c **** 			if( xTaskGetSchedulerState() == taskSCHEDULER_RUNNING )
 556              		.loc 1 399 8
 557 0048 FFF7FEFF 		bl	xTaskGetSchedulerState
 558 004c 0346     		mov	r3, r0
 559              		.loc 1 399 6
 560 004e 022B     		cmp	r3, #2
 561 0050 09D1     		bne	.L29
 400:Middlewares/Third_Party/FreeRTOS/Source/timers.c **** 			{
 401:Middlewares/Third_Party/FreeRTOS/Source/timers.c **** 				xReturn = xQueueSendToBack( xTimerQueue, &xMessage, xTicksToWait );
 562              		.loc 1 401 15
 563 0052 114B     		ldr	r3, .L31
 564 0054 1868     		ldr	r0, [r3]
 565 0056 07F11001 		add	r1, r7, #16
 566 005a 0023     		movs	r3, #0
 567 005c 3A6B     		ldr	r2, [r7, #48]
 568 005e FFF7FEFF 		bl	xQueueGenericSend
 569 0062 7862     		str	r0, [r7, #36]
 570 0064 12E0     		b	.L27
 571              	.L29:
 402:Middlewares/Third_Party/FreeRTOS/Source/timers.c **** 			}
 403:Middlewares/Third_Party/FreeRTOS/Source/timers.c **** 			else
 404:Middlewares/Third_Party/FreeRTOS/Source/timers.c **** 			{
 405:Middlewares/Third_Party/FreeRTOS/Source/timers.c **** 				xReturn = xQueueSendToBack( xTimerQueue, &xMessage, tmrNO_DELAY );
 572              		.loc 1 405 15
 573 0066 0C4B     		ldr	r3, .L31
 574 0068 1868     		ldr	r0, [r3]
 575 006a 07F11001 		add	r1, r7, #16
 576 006e 0023     		movs	r3, #0
 577 0070 0022     		movs	r2, #0
 578 0072 FFF7FEFF 		bl	xQueueGenericSend
 579 0076 7862     		str	r0, [r7, #36]
 580 0078 08E0     		b	.L27
 581              	.L28:
 406:Middlewares/Third_Party/FreeRTOS/Source/timers.c **** 			}
 407:Middlewares/Third_Party/FreeRTOS/Source/timers.c **** 		}
 408:Middlewares/Third_Party/FreeRTOS/Source/timers.c **** 		else
 409:Middlewares/Third_Party/FreeRTOS/Source/timers.c **** 		{
 410:Middlewares/Third_Party/FreeRTOS/Source/timers.c **** 			xReturn = xQueueSendToBackFromISR( xTimerQueue, &xMessage, pxHigherPriorityTaskWoken );
 582              		.loc 1 410 14
 583 007a 074B     		ldr	r3, .L31
 584 007c 1868     		ldr	r0, [r3]
 585 007e 07F11001 		add	r1, r7, #16
 586 0082 0023     		movs	r3, #0
 587 0084 3A68     		ldr	r2, [r7]
 588 0086 FFF7FEFF 		bl	xQueueGenericSendFromISR
 589 008a 7862     		str	r0, [r7, #36]
 590              	.L27:
 411:Middlewares/Third_Party/FreeRTOS/Source/timers.c **** 		}
 412:Middlewares/Third_Party/FreeRTOS/Source/timers.c **** 
ARM GAS  C:\Users\Bunyamin\AppData\Local\Temp\ccFW9f40.s 			page 22


 413:Middlewares/Third_Party/FreeRTOS/Source/timers.c **** 		traceTIMER_COMMAND_SEND( xTimer, xCommandID, xOptionalValue, xReturn );
 414:Middlewares/Third_Party/FreeRTOS/Source/timers.c **** 	}
 415:Middlewares/Third_Party/FreeRTOS/Source/timers.c **** 	else
 416:Middlewares/Third_Party/FreeRTOS/Source/timers.c **** 	{
 417:Middlewares/Third_Party/FreeRTOS/Source/timers.c **** 		mtCOVERAGE_TEST_MARKER();
 418:Middlewares/Third_Party/FreeRTOS/Source/timers.c **** 	}
 419:Middlewares/Third_Party/FreeRTOS/Source/timers.c **** 
 420:Middlewares/Third_Party/FreeRTOS/Source/timers.c **** 	return xReturn;
 591              		.loc 1 420 9
 592 008c 7B6A     		ldr	r3, [r7, #36]
 421:Middlewares/Third_Party/FreeRTOS/Source/timers.c **** }
 593              		.loc 1 421 1
 594 008e 1846     		mov	r0, r3
 595 0090 2837     		adds	r7, r7, #40
 596              	.LCFI23:
 597              		.cfi_def_cfa_offset 8
 598 0092 BD46     		mov	sp, r7
 599              	.LCFI24:
 600              		.cfi_def_cfa_register 13
 601              		@ sp needed
 602 0094 80BD     		pop	{r7, pc}
 603              	.L32:
 604 0096 00BF     		.align	2
 605              	.L31:
 606 0098 00000000 		.word	xTimerQueue
 607              		.cfi_endproc
 608              	.LFE8:
 610              		.section	.text.xTimerGetTimerDaemonTaskHandle,"ax",%progbits
 611              		.align	1
 612              		.global	xTimerGetTimerDaemonTaskHandle
 613              		.syntax unified
 614              		.thumb
 615              		.thumb_func
 617              	xTimerGetTimerDaemonTaskHandle:
 618              	.LFB9:
 422:Middlewares/Third_Party/FreeRTOS/Source/timers.c **** /*-----------------------------------------------------------*/
 423:Middlewares/Third_Party/FreeRTOS/Source/timers.c **** 
 424:Middlewares/Third_Party/FreeRTOS/Source/timers.c **** TaskHandle_t xTimerGetTimerDaemonTaskHandle( void )
 425:Middlewares/Third_Party/FreeRTOS/Source/timers.c **** {
 619              		.loc 1 425 1
 620              		.cfi_startproc
 621              		@ args = 0, pretend = 0, frame = 8
 622              		@ frame_needed = 1, uses_anonymous_args = 0
 623              		@ link register save eliminated.
 624 0000 80B4     		push	{r7}
 625              	.LCFI25:
 626              		.cfi_def_cfa_offset 4
 627              		.cfi_offset 7, -4
 628 0002 83B0     		sub	sp, sp, #12
 629              	.LCFI26:
 630              		.cfi_def_cfa_offset 16
 631 0004 00AF     		add	r7, sp, #0
 632              	.LCFI27:
 633              		.cfi_def_cfa_register 7
 426:Middlewares/Third_Party/FreeRTOS/Source/timers.c **** 	/* If xTimerGetTimerDaemonTaskHandle() is called before the scheduler has been
 427:Middlewares/Third_Party/FreeRTOS/Source/timers.c **** 	started, then xTimerTaskHandle will be NULL. */
 428:Middlewares/Third_Party/FreeRTOS/Source/timers.c **** 	configASSERT( ( xTimerTaskHandle != NULL ) );
ARM GAS  C:\Users\Bunyamin\AppData\Local\Temp\ccFW9f40.s 			page 23


 634              		.loc 1 428 2
 635 0006 0B4B     		ldr	r3, .L37
 636 0008 1B68     		ldr	r3, [r3]
 637 000a 002B     		cmp	r3, #0
 638 000c 0AD1     		bne	.L34
 639              	.LBB57:
 640              	.LBB58:
 195:Middlewares/Third_Party/FreeRTOS/Source/portable/GCC/ARM_CM4F/portmacro.h **** 	(
 641              		.loc 2 195 2
 642              		.syntax unified
 643              	@ 195 "Middlewares/Third_Party/FreeRTOS/Source/portable/GCC/ARM_CM4F/portmacro.h" 1
 644 000e 4FF05003 			mov r3, #80												
 645 0012 83F31188 		msr basepri, r3											
 646 0016 BFF36F8F 		isb														
 647 001a BFF34F8F 		dsb														
 648              	
 649              	@ 0 "" 2
 650              		.thumb
 651              		.syntax unified
 652 001e 7B60     		str	r3, [r7, #4]
 653              		.loc 2 203 1
 654 0020 00BF     		nop
 655              	.L35:
 656              	.LBE58:
 657              	.LBE57:
 658              		.loc 1 428 2 discriminator 1
 659 0022 FEE7     		b	.L35
 660              	.L34:
 429:Middlewares/Third_Party/FreeRTOS/Source/timers.c **** 	return xTimerTaskHandle;
 661              		.loc 1 429 9
 662 0024 034B     		ldr	r3, .L37
 663 0026 1B68     		ldr	r3, [r3]
 430:Middlewares/Third_Party/FreeRTOS/Source/timers.c **** }
 664              		.loc 1 430 1
 665 0028 1846     		mov	r0, r3
 666 002a 0C37     		adds	r7, r7, #12
 667              	.LCFI28:
 668              		.cfi_def_cfa_offset 4
 669 002c BD46     		mov	sp, r7
 670              	.LCFI29:
 671              		.cfi_def_cfa_register 13
 672              		@ sp needed
 673 002e 5DF8047B 		ldr	r7, [sp], #4
 674              	.LCFI30:
 675              		.cfi_restore 7
 676              		.cfi_def_cfa_offset 0
 677 0032 7047     		bx	lr
 678              	.L38:
 679              		.align	2
 680              	.L37:
 681 0034 00000000 		.word	xTimerTaskHandle
 682              		.cfi_endproc
 683              	.LFE9:
 685              		.section	.text.xTimerGetPeriod,"ax",%progbits
 686              		.align	1
 687              		.global	xTimerGetPeriod
 688              		.syntax unified
ARM GAS  C:\Users\Bunyamin\AppData\Local\Temp\ccFW9f40.s 			page 24


 689              		.thumb
 690              		.thumb_func
 692              	xTimerGetPeriod:
 693              	.LFB10:
 431:Middlewares/Third_Party/FreeRTOS/Source/timers.c **** /*-----------------------------------------------------------*/
 432:Middlewares/Third_Party/FreeRTOS/Source/timers.c **** 
 433:Middlewares/Third_Party/FreeRTOS/Source/timers.c **** TickType_t xTimerGetPeriod( TimerHandle_t xTimer )
 434:Middlewares/Third_Party/FreeRTOS/Source/timers.c **** {
 694              		.loc 1 434 1
 695              		.cfi_startproc
 696              		@ args = 0, pretend = 0, frame = 16
 697              		@ frame_needed = 1, uses_anonymous_args = 0
 698              		@ link register save eliminated.
 699 0000 80B4     		push	{r7}
 700              	.LCFI31:
 701              		.cfi_def_cfa_offset 4
 702              		.cfi_offset 7, -4
 703 0002 85B0     		sub	sp, sp, #20
 704              	.LCFI32:
 705              		.cfi_def_cfa_offset 24
 706 0004 00AF     		add	r7, sp, #0
 707              	.LCFI33:
 708              		.cfi_def_cfa_register 7
 709 0006 7860     		str	r0, [r7, #4]
 435:Middlewares/Third_Party/FreeRTOS/Source/timers.c **** Timer_t *pxTimer = xTimer;
 710              		.loc 1 435 10
 711 0008 7B68     		ldr	r3, [r7, #4]
 712 000a FB60     		str	r3, [r7, #12]
 436:Middlewares/Third_Party/FreeRTOS/Source/timers.c **** 
 437:Middlewares/Third_Party/FreeRTOS/Source/timers.c **** 	configASSERT( xTimer );
 713              		.loc 1 437 2
 714 000c 7B68     		ldr	r3, [r7, #4]
 715 000e 002B     		cmp	r3, #0
 716 0010 0AD1     		bne	.L40
 717              	.LBB59:
 718              	.LBB60:
 195:Middlewares/Third_Party/FreeRTOS/Source/portable/GCC/ARM_CM4F/portmacro.h **** 	(
 719              		.loc 2 195 2
 720              		.syntax unified
 721              	@ 195 "Middlewares/Third_Party/FreeRTOS/Source/portable/GCC/ARM_CM4F/portmacro.h" 1
 722 0012 4FF05003 			mov r3, #80												
 723 0016 83F31188 		msr basepri, r3											
 724 001a BFF36F8F 		isb														
 725 001e BFF34F8F 		dsb														
 726              	
 727              	@ 0 "" 2
 728              		.thumb
 729              		.syntax unified
 730 0022 BB60     		str	r3, [r7, #8]
 731              		.loc 2 203 1
 732 0024 00BF     		nop
 733              	.L41:
 734              	.LBE60:
 735              	.LBE59:
 736              		.loc 1 437 2 discriminator 1
 737 0026 FEE7     		b	.L41
 738              	.L40:
ARM GAS  C:\Users\Bunyamin\AppData\Local\Temp\ccFW9f40.s 			page 25


 438:Middlewares/Third_Party/FreeRTOS/Source/timers.c **** 	return pxTimer->xTimerPeriodInTicks;
 739              		.loc 1 438 16
 740 0028 FB68     		ldr	r3, [r7, #12]
 741 002a 9B69     		ldr	r3, [r3, #24]
 439:Middlewares/Third_Party/FreeRTOS/Source/timers.c **** }
 742              		.loc 1 439 1
 743 002c 1846     		mov	r0, r3
 744 002e 1437     		adds	r7, r7, #20
 745              	.LCFI34:
 746              		.cfi_def_cfa_offset 4
 747 0030 BD46     		mov	sp, r7
 748              	.LCFI35:
 749              		.cfi_def_cfa_register 13
 750              		@ sp needed
 751 0032 5DF8047B 		ldr	r7, [sp], #4
 752              	.LCFI36:
 753              		.cfi_restore 7
 754              		.cfi_def_cfa_offset 0
 755 0036 7047     		bx	lr
 756              		.cfi_endproc
 757              	.LFE10:
 759              		.section	.text.vTimerSetReloadMode,"ax",%progbits
 760              		.align	1
 761              		.global	vTimerSetReloadMode
 762              		.syntax unified
 763              		.thumb
 764              		.thumb_func
 766              	vTimerSetReloadMode:
 767              	.LFB11:
 440:Middlewares/Third_Party/FreeRTOS/Source/timers.c **** /*-----------------------------------------------------------*/
 441:Middlewares/Third_Party/FreeRTOS/Source/timers.c **** 
 442:Middlewares/Third_Party/FreeRTOS/Source/timers.c **** void vTimerSetReloadMode( TimerHandle_t xTimer, const UBaseType_t uxAutoReload )
 443:Middlewares/Third_Party/FreeRTOS/Source/timers.c **** {
 768              		.loc 1 443 1
 769              		.cfi_startproc
 770              		@ args = 0, pretend = 0, frame = 16
 771              		@ frame_needed = 1, uses_anonymous_args = 0
 772 0000 80B5     		push	{r7, lr}
 773              	.LCFI37:
 774              		.cfi_def_cfa_offset 8
 775              		.cfi_offset 7, -8
 776              		.cfi_offset 14, -4
 777 0002 84B0     		sub	sp, sp, #16
 778              	.LCFI38:
 779              		.cfi_def_cfa_offset 24
 780 0004 00AF     		add	r7, sp, #0
 781              	.LCFI39:
 782              		.cfi_def_cfa_register 7
 783 0006 7860     		str	r0, [r7, #4]
 784 0008 3960     		str	r1, [r7]
 444:Middlewares/Third_Party/FreeRTOS/Source/timers.c **** Timer_t * pxTimer =  xTimer;
 785              		.loc 1 444 11
 786 000a 7B68     		ldr	r3, [r7, #4]
 787 000c FB60     		str	r3, [r7, #12]
 445:Middlewares/Third_Party/FreeRTOS/Source/timers.c **** 
 446:Middlewares/Third_Party/FreeRTOS/Source/timers.c **** 	configASSERT( xTimer );
 788              		.loc 1 446 2
ARM GAS  C:\Users\Bunyamin\AppData\Local\Temp\ccFW9f40.s 			page 26


 789 000e 7B68     		ldr	r3, [r7, #4]
 790 0010 002B     		cmp	r3, #0
 791 0012 0AD1     		bne	.L44
 792              	.LBB61:
 793              	.LBB62:
 195:Middlewares/Third_Party/FreeRTOS/Source/portable/GCC/ARM_CM4F/portmacro.h **** 	(
 794              		.loc 2 195 2
 795              		.syntax unified
 796              	@ 195 "Middlewares/Third_Party/FreeRTOS/Source/portable/GCC/ARM_CM4F/portmacro.h" 1
 797 0014 4FF05003 			mov r3, #80												
 798 0018 83F31188 		msr basepri, r3											
 799 001c BFF36F8F 		isb														
 800 0020 BFF34F8F 		dsb														
 801              	
 802              	@ 0 "" 2
 803              		.thumb
 804              		.syntax unified
 805 0024 BB60     		str	r3, [r7, #8]
 806              		.loc 2 203 1
 807 0026 00BF     		nop
 808              	.L45:
 809              	.LBE62:
 810              	.LBE61:
 811              		.loc 1 446 2 discriminator 1
 812 0028 FEE7     		b	.L45
 813              	.L44:
 447:Middlewares/Third_Party/FreeRTOS/Source/timers.c **** 	taskENTER_CRITICAL();
 814              		.loc 1 447 2
 815 002a FFF7FEFF 		bl	vPortEnterCritical
 448:Middlewares/Third_Party/FreeRTOS/Source/timers.c **** 	{
 449:Middlewares/Third_Party/FreeRTOS/Source/timers.c **** 		if( uxAutoReload != pdFALSE )
 816              		.loc 1 449 5
 817 002e 3B68     		ldr	r3, [r7]
 818 0030 002B     		cmp	r3, #0
 819 0032 09D0     		beq	.L46
 450:Middlewares/Third_Party/FreeRTOS/Source/timers.c **** 		{
 451:Middlewares/Third_Party/FreeRTOS/Source/timers.c **** 			pxTimer->ucStatus |= tmrSTATUS_IS_AUTORELOAD;
 820              		.loc 1 451 22
 821 0034 FB68     		ldr	r3, [r7, #12]
 822 0036 93F82830 		ldrb	r3, [r3, #40]	@ zero_extendqisi2
 823 003a 43F00403 		orr	r3, r3, #4
 824 003e DAB2     		uxtb	r2, r3
 825 0040 FB68     		ldr	r3, [r7, #12]
 826 0042 83F82820 		strb	r2, [r3, #40]
 827 0046 08E0     		b	.L47
 828              	.L46:
 452:Middlewares/Third_Party/FreeRTOS/Source/timers.c **** 		}
 453:Middlewares/Third_Party/FreeRTOS/Source/timers.c **** 		else
 454:Middlewares/Third_Party/FreeRTOS/Source/timers.c **** 		{
 455:Middlewares/Third_Party/FreeRTOS/Source/timers.c **** 			pxTimer->ucStatus &= ~tmrSTATUS_IS_AUTORELOAD;
 829              		.loc 1 455 22
 830 0048 FB68     		ldr	r3, [r7, #12]
 831 004a 93F82830 		ldrb	r3, [r3, #40]	@ zero_extendqisi2
 832 004e 23F00403 		bic	r3, r3, #4
 833 0052 DAB2     		uxtb	r2, r3
 834 0054 FB68     		ldr	r3, [r7, #12]
 835 0056 83F82820 		strb	r2, [r3, #40]
ARM GAS  C:\Users\Bunyamin\AppData\Local\Temp\ccFW9f40.s 			page 27


 836              	.L47:
 456:Middlewares/Third_Party/FreeRTOS/Source/timers.c **** 		}
 457:Middlewares/Third_Party/FreeRTOS/Source/timers.c **** 	}
 458:Middlewares/Third_Party/FreeRTOS/Source/timers.c **** 	taskEXIT_CRITICAL();
 837              		.loc 1 458 2
 838 005a FFF7FEFF 		bl	vPortExitCritical
 459:Middlewares/Third_Party/FreeRTOS/Source/timers.c **** }
 839              		.loc 1 459 1
 840 005e 00BF     		nop
 841 0060 1037     		adds	r7, r7, #16
 842              	.LCFI40:
 843              		.cfi_def_cfa_offset 8
 844 0062 BD46     		mov	sp, r7
 845              	.LCFI41:
 846              		.cfi_def_cfa_register 13
 847              		@ sp needed
 848 0064 80BD     		pop	{r7, pc}
 849              		.cfi_endproc
 850              	.LFE11:
 852              		.section	.text.uxTimerGetReloadMode,"ax",%progbits
 853              		.align	1
 854              		.global	uxTimerGetReloadMode
 855              		.syntax unified
 856              		.thumb
 857              		.thumb_func
 859              	uxTimerGetReloadMode:
 860              	.LFB12:
 460:Middlewares/Third_Party/FreeRTOS/Source/timers.c **** /*-----------------------------------------------------------*/
 461:Middlewares/Third_Party/FreeRTOS/Source/timers.c **** 
 462:Middlewares/Third_Party/FreeRTOS/Source/timers.c **** UBaseType_t uxTimerGetReloadMode( TimerHandle_t xTimer )
 463:Middlewares/Third_Party/FreeRTOS/Source/timers.c **** {
 861              		.loc 1 463 1
 862              		.cfi_startproc
 863              		@ args = 0, pretend = 0, frame = 24
 864              		@ frame_needed = 1, uses_anonymous_args = 0
 865 0000 80B5     		push	{r7, lr}
 866              	.LCFI42:
 867              		.cfi_def_cfa_offset 8
 868              		.cfi_offset 7, -8
 869              		.cfi_offset 14, -4
 870 0002 86B0     		sub	sp, sp, #24
 871              	.LCFI43:
 872              		.cfi_def_cfa_offset 32
 873 0004 00AF     		add	r7, sp, #0
 874              	.LCFI44:
 875              		.cfi_def_cfa_register 7
 876 0006 7860     		str	r0, [r7, #4]
 464:Middlewares/Third_Party/FreeRTOS/Source/timers.c **** Timer_t * pxTimer =  xTimer;
 877              		.loc 1 464 11
 878 0008 7B68     		ldr	r3, [r7, #4]
 879 000a 3B61     		str	r3, [r7, #16]
 465:Middlewares/Third_Party/FreeRTOS/Source/timers.c **** UBaseType_t uxReturn;
 466:Middlewares/Third_Party/FreeRTOS/Source/timers.c **** 
 467:Middlewares/Third_Party/FreeRTOS/Source/timers.c **** 	configASSERT( xTimer );
 880              		.loc 1 467 2
 881 000c 7B68     		ldr	r3, [r7, #4]
 882 000e 002B     		cmp	r3, #0
ARM GAS  C:\Users\Bunyamin\AppData\Local\Temp\ccFW9f40.s 			page 28


 883 0010 0AD1     		bne	.L49
 884              	.LBB63:
 885              	.LBB64:
 195:Middlewares/Third_Party/FreeRTOS/Source/portable/GCC/ARM_CM4F/portmacro.h **** 	(
 886              		.loc 2 195 2
 887              		.syntax unified
 888              	@ 195 "Middlewares/Third_Party/FreeRTOS/Source/portable/GCC/ARM_CM4F/portmacro.h" 1
 889 0012 4FF05003 			mov r3, #80												
 890 0016 83F31188 		msr basepri, r3											
 891 001a BFF36F8F 		isb														
 892 001e BFF34F8F 		dsb														
 893              	
 894              	@ 0 "" 2
 895              		.thumb
 896              		.syntax unified
 897 0022 FB60     		str	r3, [r7, #12]
 898              		.loc 2 203 1
 899 0024 00BF     		nop
 900              	.L50:
 901              	.LBE64:
 902              	.LBE63:
 903              		.loc 1 467 2 discriminator 1
 904 0026 FEE7     		b	.L50
 905              	.L49:
 468:Middlewares/Third_Party/FreeRTOS/Source/timers.c **** 	taskENTER_CRITICAL();
 906              		.loc 1 468 2
 907 0028 FFF7FEFF 		bl	vPortEnterCritical
 469:Middlewares/Third_Party/FreeRTOS/Source/timers.c **** 	{
 470:Middlewares/Third_Party/FreeRTOS/Source/timers.c **** 		if( ( pxTimer->ucStatus & tmrSTATUS_IS_AUTORELOAD ) == 0 )
 908              		.loc 1 470 16
 909 002c 3B69     		ldr	r3, [r7, #16]
 910 002e 93F82830 		ldrb	r3, [r3, #40]	@ zero_extendqisi2
 911              		.loc 1 470 27
 912 0032 03F00403 		and	r3, r3, #4
 913              		.loc 1 470 5
 914 0036 002B     		cmp	r3, #0
 915 0038 02D1     		bne	.L51
 471:Middlewares/Third_Party/FreeRTOS/Source/timers.c **** 		{
 472:Middlewares/Third_Party/FreeRTOS/Source/timers.c **** 			/* Not an auto-reload timer. */
 473:Middlewares/Third_Party/FreeRTOS/Source/timers.c **** 			uxReturn = ( UBaseType_t ) pdFALSE;
 916              		.loc 1 473 13
 917 003a 0023     		movs	r3, #0
 918 003c 7B61     		str	r3, [r7, #20]
 919 003e 01E0     		b	.L52
 920              	.L51:
 474:Middlewares/Third_Party/FreeRTOS/Source/timers.c **** 		}
 475:Middlewares/Third_Party/FreeRTOS/Source/timers.c **** 		else
 476:Middlewares/Third_Party/FreeRTOS/Source/timers.c **** 		{
 477:Middlewares/Third_Party/FreeRTOS/Source/timers.c **** 			/* Is an auto-reload timer. */
 478:Middlewares/Third_Party/FreeRTOS/Source/timers.c **** 			uxReturn = ( UBaseType_t ) pdTRUE;
 921              		.loc 1 478 13
 922 0040 0123     		movs	r3, #1
 923 0042 7B61     		str	r3, [r7, #20]
 924              	.L52:
 479:Middlewares/Third_Party/FreeRTOS/Source/timers.c **** 		}
 480:Middlewares/Third_Party/FreeRTOS/Source/timers.c **** 	}
 481:Middlewares/Third_Party/FreeRTOS/Source/timers.c **** 	taskEXIT_CRITICAL();
ARM GAS  C:\Users\Bunyamin\AppData\Local\Temp\ccFW9f40.s 			page 29


 925              		.loc 1 481 2
 926 0044 FFF7FEFF 		bl	vPortExitCritical
 482:Middlewares/Third_Party/FreeRTOS/Source/timers.c **** 
 483:Middlewares/Third_Party/FreeRTOS/Source/timers.c **** 	return uxReturn;
 927              		.loc 1 483 9
 928 0048 7B69     		ldr	r3, [r7, #20]
 484:Middlewares/Third_Party/FreeRTOS/Source/timers.c **** }
 929              		.loc 1 484 1
 930 004a 1846     		mov	r0, r3
 931 004c 1837     		adds	r7, r7, #24
 932              	.LCFI45:
 933              		.cfi_def_cfa_offset 8
 934 004e BD46     		mov	sp, r7
 935              	.LCFI46:
 936              		.cfi_def_cfa_register 13
 937              		@ sp needed
 938 0050 80BD     		pop	{r7, pc}
 939              		.cfi_endproc
 940              	.LFE12:
 942              		.section	.text.xTimerGetExpiryTime,"ax",%progbits
 943              		.align	1
 944              		.global	xTimerGetExpiryTime
 945              		.syntax unified
 946              		.thumb
 947              		.thumb_func
 949              	xTimerGetExpiryTime:
 950              	.LFB13:
 485:Middlewares/Third_Party/FreeRTOS/Source/timers.c **** /*-----------------------------------------------------------*/
 486:Middlewares/Third_Party/FreeRTOS/Source/timers.c **** 
 487:Middlewares/Third_Party/FreeRTOS/Source/timers.c **** TickType_t xTimerGetExpiryTime( TimerHandle_t xTimer )
 488:Middlewares/Third_Party/FreeRTOS/Source/timers.c **** {
 951              		.loc 1 488 1
 952              		.cfi_startproc
 953              		@ args = 0, pretend = 0, frame = 24
 954              		@ frame_needed = 1, uses_anonymous_args = 0
 955              		@ link register save eliminated.
 956 0000 80B4     		push	{r7}
 957              	.LCFI47:
 958              		.cfi_def_cfa_offset 4
 959              		.cfi_offset 7, -4
 960 0002 87B0     		sub	sp, sp, #28
 961              	.LCFI48:
 962              		.cfi_def_cfa_offset 32
 963 0004 00AF     		add	r7, sp, #0
 964              	.LCFI49:
 965              		.cfi_def_cfa_register 7
 966 0006 7860     		str	r0, [r7, #4]
 489:Middlewares/Third_Party/FreeRTOS/Source/timers.c **** Timer_t * pxTimer =  xTimer;
 967              		.loc 1 489 11
 968 0008 7B68     		ldr	r3, [r7, #4]
 969 000a 7B61     		str	r3, [r7, #20]
 490:Middlewares/Third_Party/FreeRTOS/Source/timers.c **** TickType_t xReturn;
 491:Middlewares/Third_Party/FreeRTOS/Source/timers.c **** 
 492:Middlewares/Third_Party/FreeRTOS/Source/timers.c **** 	configASSERT( xTimer );
 970              		.loc 1 492 2
 971 000c 7B68     		ldr	r3, [r7, #4]
 972 000e 002B     		cmp	r3, #0
ARM GAS  C:\Users\Bunyamin\AppData\Local\Temp\ccFW9f40.s 			page 30


 973 0010 0AD1     		bne	.L55
 974              	.LBB65:
 975              	.LBB66:
 195:Middlewares/Third_Party/FreeRTOS/Source/portable/GCC/ARM_CM4F/portmacro.h **** 	(
 976              		.loc 2 195 2
 977              		.syntax unified
 978              	@ 195 "Middlewares/Third_Party/FreeRTOS/Source/portable/GCC/ARM_CM4F/portmacro.h" 1
 979 0012 4FF05003 			mov r3, #80												
 980 0016 83F31188 		msr basepri, r3											
 981 001a BFF36F8F 		isb														
 982 001e BFF34F8F 		dsb														
 983              	
 984              	@ 0 "" 2
 985              		.thumb
 986              		.syntax unified
 987 0022 FB60     		str	r3, [r7, #12]
 988              		.loc 2 203 1
 989 0024 00BF     		nop
 990              	.L56:
 991              	.LBE66:
 992              	.LBE65:
 993              		.loc 1 492 2 discriminator 1
 994 0026 FEE7     		b	.L56
 995              	.L55:
 493:Middlewares/Third_Party/FreeRTOS/Source/timers.c **** 	xReturn = listGET_LIST_ITEM_VALUE( &( pxTimer->xTimerListItem ) );
 996              		.loc 1 493 10
 997 0028 7B69     		ldr	r3, [r7, #20]
 998 002a 5B68     		ldr	r3, [r3, #4]
 999 002c 3B61     		str	r3, [r7, #16]
 494:Middlewares/Third_Party/FreeRTOS/Source/timers.c **** 	return xReturn;
 1000              		.loc 1 494 9
 1001 002e 3B69     		ldr	r3, [r7, #16]
 495:Middlewares/Third_Party/FreeRTOS/Source/timers.c **** }
 1002              		.loc 1 495 1
 1003 0030 1846     		mov	r0, r3
 1004 0032 1C37     		adds	r7, r7, #28
 1005              	.LCFI50:
 1006              		.cfi_def_cfa_offset 4
 1007 0034 BD46     		mov	sp, r7
 1008              	.LCFI51:
 1009              		.cfi_def_cfa_register 13
 1010              		@ sp needed
 1011 0036 5DF8047B 		ldr	r7, [sp], #4
 1012              	.LCFI52:
 1013              		.cfi_restore 7
 1014              		.cfi_def_cfa_offset 0
 1015 003a 7047     		bx	lr
 1016              		.cfi_endproc
 1017              	.LFE13:
 1019              		.section	.text.pcTimerGetName,"ax",%progbits
 1020              		.align	1
 1021              		.global	pcTimerGetName
 1022              		.syntax unified
 1023              		.thumb
 1024              		.thumb_func
 1026              	pcTimerGetName:
 1027              	.LFB14:
ARM GAS  C:\Users\Bunyamin\AppData\Local\Temp\ccFW9f40.s 			page 31


 496:Middlewares/Third_Party/FreeRTOS/Source/timers.c **** /*-----------------------------------------------------------*/
 497:Middlewares/Third_Party/FreeRTOS/Source/timers.c **** 
 498:Middlewares/Third_Party/FreeRTOS/Source/timers.c **** const char * pcTimerGetName( TimerHandle_t xTimer ) /*lint !e971 Unqualified char types are allowed
 499:Middlewares/Third_Party/FreeRTOS/Source/timers.c **** {
 1028              		.loc 1 499 1
 1029              		.cfi_startproc
 1030              		@ args = 0, pretend = 0, frame = 16
 1031              		@ frame_needed = 1, uses_anonymous_args = 0
 1032              		@ link register save eliminated.
 1033 0000 80B4     		push	{r7}
 1034              	.LCFI53:
 1035              		.cfi_def_cfa_offset 4
 1036              		.cfi_offset 7, -4
 1037 0002 85B0     		sub	sp, sp, #20
 1038              	.LCFI54:
 1039              		.cfi_def_cfa_offset 24
 1040 0004 00AF     		add	r7, sp, #0
 1041              	.LCFI55:
 1042              		.cfi_def_cfa_register 7
 1043 0006 7860     		str	r0, [r7, #4]
 500:Middlewares/Third_Party/FreeRTOS/Source/timers.c **** Timer_t *pxTimer = xTimer;
 1044              		.loc 1 500 10
 1045 0008 7B68     		ldr	r3, [r7, #4]
 1046 000a FB60     		str	r3, [r7, #12]
 501:Middlewares/Third_Party/FreeRTOS/Source/timers.c **** 
 502:Middlewares/Third_Party/FreeRTOS/Source/timers.c **** 	configASSERT( xTimer );
 1047              		.loc 1 502 2
 1048 000c 7B68     		ldr	r3, [r7, #4]
 1049 000e 002B     		cmp	r3, #0
 1050 0010 0AD1     		bne	.L59
 1051              	.LBB67:
 1052              	.LBB68:
 195:Middlewares/Third_Party/FreeRTOS/Source/portable/GCC/ARM_CM4F/portmacro.h **** 	(
 1053              		.loc 2 195 2
 1054              		.syntax unified
 1055              	@ 195 "Middlewares/Third_Party/FreeRTOS/Source/portable/GCC/ARM_CM4F/portmacro.h" 1
 1056 0012 4FF05003 			mov r3, #80												
 1057 0016 83F31188 		msr basepri, r3											
 1058 001a BFF36F8F 		isb														
 1059 001e BFF34F8F 		dsb														
 1060              	
 1061              	@ 0 "" 2
 1062              		.thumb
 1063              		.syntax unified
 1064 0022 BB60     		str	r3, [r7, #8]
 1065              		.loc 2 203 1
 1066 0024 00BF     		nop
 1067              	.L60:
 1068              	.LBE68:
 1069              	.LBE67:
 1070              		.loc 1 502 2 discriminator 1
 1071 0026 FEE7     		b	.L60
 1072              	.L59:
 503:Middlewares/Third_Party/FreeRTOS/Source/timers.c **** 	return pxTimer->pcTimerName;
 1073              		.loc 1 503 16
 1074 0028 FB68     		ldr	r3, [r7, #12]
 1075 002a 1B68     		ldr	r3, [r3]
ARM GAS  C:\Users\Bunyamin\AppData\Local\Temp\ccFW9f40.s 			page 32


 504:Middlewares/Third_Party/FreeRTOS/Source/timers.c **** }
 1076              		.loc 1 504 1
 1077 002c 1846     		mov	r0, r3
 1078 002e 1437     		adds	r7, r7, #20
 1079              	.LCFI56:
 1080              		.cfi_def_cfa_offset 4
 1081 0030 BD46     		mov	sp, r7
 1082              	.LCFI57:
 1083              		.cfi_def_cfa_register 13
 1084              		@ sp needed
 1085 0032 5DF8047B 		ldr	r7, [sp], #4
 1086              	.LCFI58:
 1087              		.cfi_restore 7
 1088              		.cfi_def_cfa_offset 0
 1089 0036 7047     		bx	lr
 1090              		.cfi_endproc
 1091              	.LFE14:
 1093              		.section	.text.prvProcessExpiredTimer,"ax",%progbits
 1094              		.align	1
 1095              		.syntax unified
 1096              		.thumb
 1097              		.thumb_func
 1099              	prvProcessExpiredTimer:
 1100              	.LFB15:
 505:Middlewares/Third_Party/FreeRTOS/Source/timers.c **** /*-----------------------------------------------------------*/
 506:Middlewares/Third_Party/FreeRTOS/Source/timers.c **** 
 507:Middlewares/Third_Party/FreeRTOS/Source/timers.c **** static void prvProcessExpiredTimer( const TickType_t xNextExpireTime, const TickType_t xTimeNow )
 508:Middlewares/Third_Party/FreeRTOS/Source/timers.c **** {
 1101              		.loc 1 508 1
 1102              		.cfi_startproc
 1103              		@ args = 0, pretend = 0, frame = 24
 1104              		@ frame_needed = 1, uses_anonymous_args = 0
 1105 0000 80B5     		push	{r7, lr}
 1106              	.LCFI59:
 1107              		.cfi_def_cfa_offset 8
 1108              		.cfi_offset 7, -8
 1109              		.cfi_offset 14, -4
 1110 0002 88B0     		sub	sp, sp, #32
 1111              	.LCFI60:
 1112              		.cfi_def_cfa_offset 40
 1113 0004 02AF     		add	r7, sp, #8
 1114              	.LCFI61:
 1115              		.cfi_def_cfa 7, 32
 1116 0006 7860     		str	r0, [r7, #4]
 1117 0008 3960     		str	r1, [r7]
 509:Middlewares/Third_Party/FreeRTOS/Source/timers.c **** BaseType_t xResult;
 510:Middlewares/Third_Party/FreeRTOS/Source/timers.c **** Timer_t * const pxTimer = ( Timer_t * ) listGET_OWNER_OF_HEAD_ENTRY( pxCurrentTimerList ); /*lint !
 1118              		.loc 1 510 41
 1119 000a 224B     		ldr	r3, .L66
 1120 000c 1B68     		ldr	r3, [r3]
 1121 000e DB68     		ldr	r3, [r3, #12]
 1122              		.loc 1 510 17
 1123 0010 DB68     		ldr	r3, [r3, #12]
 1124 0012 7B61     		str	r3, [r7, #20]
 511:Middlewares/Third_Party/FreeRTOS/Source/timers.c **** 
 512:Middlewares/Third_Party/FreeRTOS/Source/timers.c **** 	/* Remove the timer from the list of active timers.  A check has already
 513:Middlewares/Third_Party/FreeRTOS/Source/timers.c **** 	been performed to ensure the list is not empty. */
ARM GAS  C:\Users\Bunyamin\AppData\Local\Temp\ccFW9f40.s 			page 33


 514:Middlewares/Third_Party/FreeRTOS/Source/timers.c **** 	( void ) uxListRemove( &( pxTimer->xTimerListItem ) );
 1125              		.loc 1 514 11
 1126 0014 7B69     		ldr	r3, [r7, #20]
 1127 0016 0433     		adds	r3, r3, #4
 1128 0018 1846     		mov	r0, r3
 1129 001a FFF7FEFF 		bl	uxListRemove
 515:Middlewares/Third_Party/FreeRTOS/Source/timers.c **** 	traceTIMER_EXPIRED( pxTimer );
 516:Middlewares/Third_Party/FreeRTOS/Source/timers.c **** 
 517:Middlewares/Third_Party/FreeRTOS/Source/timers.c **** 	/* If the timer is an auto-reload timer then calculate the next
 518:Middlewares/Third_Party/FreeRTOS/Source/timers.c **** 	expiry time and re-insert the timer in the list of active timers. */
 519:Middlewares/Third_Party/FreeRTOS/Source/timers.c **** 	if( ( pxTimer->ucStatus & tmrSTATUS_IS_AUTORELOAD ) != 0 )
 1130              		.loc 1 519 15
 1131 001e 7B69     		ldr	r3, [r7, #20]
 1132 0020 93F82830 		ldrb	r3, [r3, #40]	@ zero_extendqisi2
 1133              		.loc 1 519 26
 1134 0024 03F00403 		and	r3, r3, #4
 1135              		.loc 1 519 4
 1136 0028 002B     		cmp	r3, #0
 1137 002a 22D0     		beq	.L63
 520:Middlewares/Third_Party/FreeRTOS/Source/timers.c **** 	{
 521:Middlewares/Third_Party/FreeRTOS/Source/timers.c **** 		/* The timer is inserted into a list using a time relative to anything
 522:Middlewares/Third_Party/FreeRTOS/Source/timers.c **** 		other than the current time.  It will therefore be inserted into the
 523:Middlewares/Third_Party/FreeRTOS/Source/timers.c **** 		correct list relative to the time this task thinks it is now. */
 524:Middlewares/Third_Party/FreeRTOS/Source/timers.c **** 		if( prvInsertTimerInActiveList( pxTimer, ( xNextExpireTime + pxTimer->xTimerPeriodInTicks ), xTim
 1138              		.loc 1 524 71
 1139 002c 7B69     		ldr	r3, [r7, #20]
 1140 002e 9A69     		ldr	r2, [r3, #24]
 1141              		.loc 1 524 7
 1142 0030 7B68     		ldr	r3, [r7, #4]
 1143 0032 D118     		adds	r1, r2, r3
 1144 0034 7B68     		ldr	r3, [r7, #4]
 1145 0036 3A68     		ldr	r2, [r7]
 1146 0038 7869     		ldr	r0, [r7, #20]
 1147 003a FFF7FEFF 		bl	prvInsertTimerInActiveList
 1148 003e 0346     		mov	r3, r0
 1149              		.loc 1 524 5
 1150 0040 002B     		cmp	r3, #0
 1151 0042 1FD0     		beq	.L64
 525:Middlewares/Third_Party/FreeRTOS/Source/timers.c **** 		{
 526:Middlewares/Third_Party/FreeRTOS/Source/timers.c **** 			/* The timer expired before it was added to the active timer
 527:Middlewares/Third_Party/FreeRTOS/Source/timers.c **** 			list.  Reload it now.  */
 528:Middlewares/Third_Party/FreeRTOS/Source/timers.c **** 			xResult = xTimerGenericCommand( pxTimer, tmrCOMMAND_START_DONT_TRACE, xNextExpireTime, NULL, tmr
 1152              		.loc 1 528 14
 1153 0044 0023     		movs	r3, #0
 1154 0046 0093     		str	r3, [sp]
 1155 0048 0023     		movs	r3, #0
 1156 004a 7A68     		ldr	r2, [r7, #4]
 1157 004c 0021     		movs	r1, #0
 1158 004e 7869     		ldr	r0, [r7, #20]
 1159 0050 FFF7FEFF 		bl	xTimerGenericCommand
 1160 0054 3861     		str	r0, [r7, #16]
 529:Middlewares/Third_Party/FreeRTOS/Source/timers.c **** 			configASSERT( xResult );
 1161              		.loc 1 529 4
 1162 0056 3B69     		ldr	r3, [r7, #16]
 1163 0058 002B     		cmp	r3, #0
 1164 005a 13D1     		bne	.L64
 1165              	.LBB69:
ARM GAS  C:\Users\Bunyamin\AppData\Local\Temp\ccFW9f40.s 			page 34


 1166              	.LBB70:
 195:Middlewares/Third_Party/FreeRTOS/Source/portable/GCC/ARM_CM4F/portmacro.h **** 	(
 1167              		.loc 2 195 2
 1168              		.syntax unified
 1169              	@ 195 "Middlewares/Third_Party/FreeRTOS/Source/portable/GCC/ARM_CM4F/portmacro.h" 1
 1170 005c 4FF05003 			mov r3, #80												
 1171 0060 83F31188 		msr basepri, r3											
 1172 0064 BFF36F8F 		isb														
 1173 0068 BFF34F8F 		dsb														
 1174              	
 1175              	@ 0 "" 2
 1176              		.thumb
 1177              		.syntax unified
 1178 006c FB60     		str	r3, [r7, #12]
 1179              		.loc 2 203 1
 1180 006e 00BF     		nop
 1181              	.L65:
 1182              	.LBE70:
 1183              	.LBE69:
 1184              		.loc 1 529 4 discriminator 1
 1185 0070 FEE7     		b	.L65
 1186              	.L63:
 530:Middlewares/Third_Party/FreeRTOS/Source/timers.c **** 			( void ) xResult;
 531:Middlewares/Third_Party/FreeRTOS/Source/timers.c **** 		}
 532:Middlewares/Third_Party/FreeRTOS/Source/timers.c **** 		else
 533:Middlewares/Third_Party/FreeRTOS/Source/timers.c **** 		{
 534:Middlewares/Third_Party/FreeRTOS/Source/timers.c **** 			mtCOVERAGE_TEST_MARKER();
 535:Middlewares/Third_Party/FreeRTOS/Source/timers.c **** 		}
 536:Middlewares/Third_Party/FreeRTOS/Source/timers.c **** 	}
 537:Middlewares/Third_Party/FreeRTOS/Source/timers.c **** 	else
 538:Middlewares/Third_Party/FreeRTOS/Source/timers.c **** 	{
 539:Middlewares/Third_Party/FreeRTOS/Source/timers.c **** 		pxTimer->ucStatus &= ~tmrSTATUS_IS_ACTIVE;
 1187              		.loc 1 539 21
 1188 0072 7B69     		ldr	r3, [r7, #20]
 1189 0074 93F82830 		ldrb	r3, [r3, #40]	@ zero_extendqisi2
 1190 0078 23F00103 		bic	r3, r3, #1
 1191 007c DAB2     		uxtb	r2, r3
 1192 007e 7B69     		ldr	r3, [r7, #20]
 1193 0080 83F82820 		strb	r2, [r3, #40]
 1194              	.L64:
 540:Middlewares/Third_Party/FreeRTOS/Source/timers.c **** 		mtCOVERAGE_TEST_MARKER();
 541:Middlewares/Third_Party/FreeRTOS/Source/timers.c **** 	}
 542:Middlewares/Third_Party/FreeRTOS/Source/timers.c **** 
 543:Middlewares/Third_Party/FreeRTOS/Source/timers.c **** 	/* Call the timer callback. */
 544:Middlewares/Third_Party/FreeRTOS/Source/timers.c **** 	pxTimer->pxCallbackFunction( ( TimerHandle_t ) pxTimer );
 1195              		.loc 1 544 9
 1196 0084 7B69     		ldr	r3, [r7, #20]
 1197 0086 1B6A     		ldr	r3, [r3, #32]
 1198              		.loc 1 544 2
 1199 0088 7869     		ldr	r0, [r7, #20]
 1200 008a 9847     		blx	r3
 1201              	.LVL0:
 545:Middlewares/Third_Party/FreeRTOS/Source/timers.c **** }
 1202              		.loc 1 545 1
 1203 008c 00BF     		nop
 1204 008e 1837     		adds	r7, r7, #24
 1205              	.LCFI62:
ARM GAS  C:\Users\Bunyamin\AppData\Local\Temp\ccFW9f40.s 			page 35


 1206              		.cfi_def_cfa_offset 8
 1207 0090 BD46     		mov	sp, r7
 1208              	.LCFI63:
 1209              		.cfi_def_cfa_register 13
 1210              		@ sp needed
 1211 0092 80BD     		pop	{r7, pc}
 1212              	.L67:
 1213              		.align	2
 1214              	.L66:
 1215 0094 00000000 		.word	pxCurrentTimerList
 1216              		.cfi_endproc
 1217              	.LFE15:
 1219              		.section	.text.prvTimerTask,"ax",%progbits
 1220              		.align	1
 1221              		.syntax unified
 1222              		.thumb
 1223              		.thumb_func
 1225              	prvTimerTask:
 1226              	.LFB16:
 546:Middlewares/Third_Party/FreeRTOS/Source/timers.c **** /*-----------------------------------------------------------*/
 547:Middlewares/Third_Party/FreeRTOS/Source/timers.c **** 
 548:Middlewares/Third_Party/FreeRTOS/Source/timers.c **** static portTASK_FUNCTION( prvTimerTask, pvParameters )
 549:Middlewares/Third_Party/FreeRTOS/Source/timers.c **** {
 1227              		.loc 1 549 1
 1228              		.cfi_startproc
 1229              		@ args = 0, pretend = 0, frame = 16
 1230              		@ frame_needed = 1, uses_anonymous_args = 0
 1231 0000 80B5     		push	{r7, lr}
 1232              	.LCFI64:
 1233              		.cfi_def_cfa_offset 8
 1234              		.cfi_offset 7, -8
 1235              		.cfi_offset 14, -4
 1236 0002 84B0     		sub	sp, sp, #16
 1237              	.LCFI65:
 1238              		.cfi_def_cfa_offset 24
 1239 0004 00AF     		add	r7, sp, #0
 1240              	.LCFI66:
 1241              		.cfi_def_cfa_register 7
 1242 0006 7860     		str	r0, [r7, #4]
 1243              	.L69:
 550:Middlewares/Third_Party/FreeRTOS/Source/timers.c **** TickType_t xNextExpireTime;
 551:Middlewares/Third_Party/FreeRTOS/Source/timers.c **** BaseType_t xListWasEmpty;
 552:Middlewares/Third_Party/FreeRTOS/Source/timers.c **** 
 553:Middlewares/Third_Party/FreeRTOS/Source/timers.c **** 	/* Just to avoid compiler warnings. */
 554:Middlewares/Third_Party/FreeRTOS/Source/timers.c **** 	( void ) pvParameters;
 555:Middlewares/Third_Party/FreeRTOS/Source/timers.c **** 
 556:Middlewares/Third_Party/FreeRTOS/Source/timers.c **** 	#if( configUSE_DAEMON_TASK_STARTUP_HOOK == 1 )
 557:Middlewares/Third_Party/FreeRTOS/Source/timers.c **** 	{
 558:Middlewares/Third_Party/FreeRTOS/Source/timers.c **** 		extern void vApplicationDaemonTaskStartupHook( void );
 559:Middlewares/Third_Party/FreeRTOS/Source/timers.c **** 
 560:Middlewares/Third_Party/FreeRTOS/Source/timers.c **** 		/* Allow the application writer to execute some code in the context of
 561:Middlewares/Third_Party/FreeRTOS/Source/timers.c **** 		this task at the point the task starts executing.  This is useful if the
 562:Middlewares/Third_Party/FreeRTOS/Source/timers.c **** 		application includes initialisation code that would benefit from
 563:Middlewares/Third_Party/FreeRTOS/Source/timers.c **** 		executing after the scheduler has been started. */
 564:Middlewares/Third_Party/FreeRTOS/Source/timers.c **** 		vApplicationDaemonTaskStartupHook();
 565:Middlewares/Third_Party/FreeRTOS/Source/timers.c **** 	}
 566:Middlewares/Third_Party/FreeRTOS/Source/timers.c **** 	#endif /* configUSE_DAEMON_TASK_STARTUP_HOOK */
ARM GAS  C:\Users\Bunyamin\AppData\Local\Temp\ccFW9f40.s 			page 36


 567:Middlewares/Third_Party/FreeRTOS/Source/timers.c **** 
 568:Middlewares/Third_Party/FreeRTOS/Source/timers.c **** 	for( ;; )
 569:Middlewares/Third_Party/FreeRTOS/Source/timers.c **** 	{
 570:Middlewares/Third_Party/FreeRTOS/Source/timers.c **** 		/* Query the timers list to see if it contains any timers, and if so,
 571:Middlewares/Third_Party/FreeRTOS/Source/timers.c **** 		obtain the time at which the next timer will expire. */
 572:Middlewares/Third_Party/FreeRTOS/Source/timers.c **** 		xNextExpireTime = prvGetNextExpireTime( &xListWasEmpty );
 1244              		.loc 1 572 21 discriminator 1
 1245 0008 07F10803 		add	r3, r7, #8
 1246 000c 1846     		mov	r0, r3
 1247 000e FFF7FEFF 		bl	prvGetNextExpireTime
 1248 0012 F860     		str	r0, [r7, #12]
 573:Middlewares/Third_Party/FreeRTOS/Source/timers.c **** 
 574:Middlewares/Third_Party/FreeRTOS/Source/timers.c **** 		/* If a timer has expired, process it.  Otherwise, block this task
 575:Middlewares/Third_Party/FreeRTOS/Source/timers.c **** 		until either a timer does expire, or a command is received. */
 576:Middlewares/Third_Party/FreeRTOS/Source/timers.c **** 		prvProcessTimerOrBlockTask( xNextExpireTime, xListWasEmpty );
 1249              		.loc 1 576 3 discriminator 1
 1250 0014 BB68     		ldr	r3, [r7, #8]
 1251 0016 1946     		mov	r1, r3
 1252 0018 F868     		ldr	r0, [r7, #12]
 1253 001a FFF7FEFF 		bl	prvProcessTimerOrBlockTask
 577:Middlewares/Third_Party/FreeRTOS/Source/timers.c **** 
 578:Middlewares/Third_Party/FreeRTOS/Source/timers.c **** 		/* Empty the command queue. */
 579:Middlewares/Third_Party/FreeRTOS/Source/timers.c **** 		prvProcessReceivedCommands();
 1254              		.loc 1 579 3 discriminator 1
 1255 001e FFF7FEFF 		bl	prvProcessReceivedCommands
 572:Middlewares/Third_Party/FreeRTOS/Source/timers.c **** 
 1256              		.loc 1 572 19 discriminator 1
 1257 0022 F1E7     		b	.L69
 1258              		.cfi_endproc
 1259              	.LFE16:
 1261              		.section	.text.prvProcessTimerOrBlockTask,"ax",%progbits
 1262              		.align	1
 1263              		.syntax unified
 1264              		.thumb
 1265              		.thumb_func
 1267              	prvProcessTimerOrBlockTask:
 1268              	.LFB17:
 580:Middlewares/Third_Party/FreeRTOS/Source/timers.c **** 	}
 581:Middlewares/Third_Party/FreeRTOS/Source/timers.c **** }
 582:Middlewares/Third_Party/FreeRTOS/Source/timers.c **** /*-----------------------------------------------------------*/
 583:Middlewares/Third_Party/FreeRTOS/Source/timers.c **** 
 584:Middlewares/Third_Party/FreeRTOS/Source/timers.c **** static void prvProcessTimerOrBlockTask( const TickType_t xNextExpireTime, BaseType_t xListWasEmpty 
 585:Middlewares/Third_Party/FreeRTOS/Source/timers.c **** {
 1269              		.loc 1 585 1
 1270              		.cfi_startproc
 1271              		@ args = 0, pretend = 0, frame = 16
 1272              		@ frame_needed = 1, uses_anonymous_args = 0
 1273 0000 80B5     		push	{r7, lr}
 1274              	.LCFI67:
 1275              		.cfi_def_cfa_offset 8
 1276              		.cfi_offset 7, -8
 1277              		.cfi_offset 14, -4
 1278 0002 84B0     		sub	sp, sp, #16
 1279              	.LCFI68:
 1280              		.cfi_def_cfa_offset 24
 1281 0004 00AF     		add	r7, sp, #0
 1282              	.LCFI69:
ARM GAS  C:\Users\Bunyamin\AppData\Local\Temp\ccFW9f40.s 			page 37


 1283              		.cfi_def_cfa_register 7
 1284 0006 7860     		str	r0, [r7, #4]
 1285 0008 3960     		str	r1, [r7]
 586:Middlewares/Third_Party/FreeRTOS/Source/timers.c **** TickType_t xTimeNow;
 587:Middlewares/Third_Party/FreeRTOS/Source/timers.c **** BaseType_t xTimerListsWereSwitched;
 588:Middlewares/Third_Party/FreeRTOS/Source/timers.c **** 
 589:Middlewares/Third_Party/FreeRTOS/Source/timers.c **** 	vTaskSuspendAll();
 1286              		.loc 1 589 2
 1287 000a FFF7FEFF 		bl	vTaskSuspendAll
 590:Middlewares/Third_Party/FreeRTOS/Source/timers.c **** 	{
 591:Middlewares/Third_Party/FreeRTOS/Source/timers.c **** 		/* Obtain the time now to make an assessment as to whether the timer
 592:Middlewares/Third_Party/FreeRTOS/Source/timers.c **** 		has expired or not.  If obtaining the time causes the lists to switch
 593:Middlewares/Third_Party/FreeRTOS/Source/timers.c **** 		then don't process this timer as any timers that remained in the list
 594:Middlewares/Third_Party/FreeRTOS/Source/timers.c **** 		when the lists were switched will have been processed within the
 595:Middlewares/Third_Party/FreeRTOS/Source/timers.c **** 		prvSampleTimeNow() function. */
 596:Middlewares/Third_Party/FreeRTOS/Source/timers.c **** 		xTimeNow = prvSampleTimeNow( &xTimerListsWereSwitched );
 1288              		.loc 1 596 14
 1289 000e 07F10803 		add	r3, r7, #8
 1290 0012 1846     		mov	r0, r3
 1291 0014 FFF7FEFF 		bl	prvSampleTimeNow
 1292 0018 F860     		str	r0, [r7, #12]
 597:Middlewares/Third_Party/FreeRTOS/Source/timers.c **** 		if( xTimerListsWereSwitched == pdFALSE )
 1293              		.loc 1 597 31
 1294 001a BB68     		ldr	r3, [r7, #8]
 1295              		.loc 1 597 5
 1296 001c 002B     		cmp	r3, #0
 1297 001e 30D1     		bne	.L71
 598:Middlewares/Third_Party/FreeRTOS/Source/timers.c **** 		{
 599:Middlewares/Third_Party/FreeRTOS/Source/timers.c **** 			/* The tick count has not overflowed, has the timer expired? */
 600:Middlewares/Third_Party/FreeRTOS/Source/timers.c **** 			if( ( xListWasEmpty == pdFALSE ) && ( xNextExpireTime <= xTimeNow ) )
 1298              		.loc 1 600 6
 1299 0020 3B68     		ldr	r3, [r7]
 1300 0022 002B     		cmp	r3, #0
 1301 0024 0AD1     		bne	.L72
 1302              		.loc 1 600 37 discriminator 1
 1303 0026 7A68     		ldr	r2, [r7, #4]
 1304 0028 FB68     		ldr	r3, [r7, #12]
 1305 002a 9A42     		cmp	r2, r3
 1306 002c 06D8     		bhi	.L72
 601:Middlewares/Third_Party/FreeRTOS/Source/timers.c **** 			{
 602:Middlewares/Third_Party/FreeRTOS/Source/timers.c **** 				( void ) xTaskResumeAll();
 1307              		.loc 1 602 14
 1308 002e FFF7FEFF 		bl	xTaskResumeAll
 603:Middlewares/Third_Party/FreeRTOS/Source/timers.c **** 				prvProcessExpiredTimer( xNextExpireTime, xTimeNow );
 1309              		.loc 1 603 5
 1310 0032 F968     		ldr	r1, [r7, #12]
 1311 0034 7868     		ldr	r0, [r7, #4]
 1312 0036 FFF7FEFF 		bl	prvProcessExpiredTimer
 604:Middlewares/Third_Party/FreeRTOS/Source/timers.c **** 			}
 605:Middlewares/Third_Party/FreeRTOS/Source/timers.c **** 			else
 606:Middlewares/Third_Party/FreeRTOS/Source/timers.c **** 			{
 607:Middlewares/Third_Party/FreeRTOS/Source/timers.c **** 				/* The tick count has not overflowed, and the next expire
 608:Middlewares/Third_Party/FreeRTOS/Source/timers.c **** 				time has not been reached yet.  This task should therefore
 609:Middlewares/Third_Party/FreeRTOS/Source/timers.c **** 				block to wait for the next expire time or a command to be
 610:Middlewares/Third_Party/FreeRTOS/Source/timers.c **** 				received - whichever comes first.  The following line cannot
 611:Middlewares/Third_Party/FreeRTOS/Source/timers.c **** 				be reached unless xNextExpireTime > xTimeNow, except in the
 612:Middlewares/Third_Party/FreeRTOS/Source/timers.c **** 				case when the current timer list is empty. */
ARM GAS  C:\Users\Bunyamin\AppData\Local\Temp\ccFW9f40.s 			page 38


 613:Middlewares/Third_Party/FreeRTOS/Source/timers.c **** 				if( xListWasEmpty != pdFALSE )
 614:Middlewares/Third_Party/FreeRTOS/Source/timers.c **** 				{
 615:Middlewares/Third_Party/FreeRTOS/Source/timers.c **** 					/* The current timer list is empty - is the overflow list
 616:Middlewares/Third_Party/FreeRTOS/Source/timers.c **** 					also empty? */
 617:Middlewares/Third_Party/FreeRTOS/Source/timers.c **** 					xListWasEmpty = listLIST_IS_EMPTY( pxOverflowTimerList );
 618:Middlewares/Third_Party/FreeRTOS/Source/timers.c **** 				}
 619:Middlewares/Third_Party/FreeRTOS/Source/timers.c **** 
 620:Middlewares/Third_Party/FreeRTOS/Source/timers.c **** 				vQueueWaitForMessageRestricted( xTimerQueue, ( xNextExpireTime - xTimeNow ), xListWasEmpty );
 621:Middlewares/Third_Party/FreeRTOS/Source/timers.c **** 
 622:Middlewares/Third_Party/FreeRTOS/Source/timers.c **** 				if( xTaskResumeAll() == pdFALSE )
 623:Middlewares/Third_Party/FreeRTOS/Source/timers.c **** 				{
 624:Middlewares/Third_Party/FreeRTOS/Source/timers.c **** 					/* Yield to wait for either a command to arrive, or the
 625:Middlewares/Third_Party/FreeRTOS/Source/timers.c **** 					block time to expire.  If a command arrived between the
 626:Middlewares/Third_Party/FreeRTOS/Source/timers.c **** 					critical section being exited and this yield then the yield
 627:Middlewares/Third_Party/FreeRTOS/Source/timers.c **** 					will not cause the task to block. */
 628:Middlewares/Third_Party/FreeRTOS/Source/timers.c **** 					portYIELD_WITHIN_API();
 629:Middlewares/Third_Party/FreeRTOS/Source/timers.c **** 				}
 630:Middlewares/Third_Party/FreeRTOS/Source/timers.c **** 				else
 631:Middlewares/Third_Party/FreeRTOS/Source/timers.c **** 				{
 632:Middlewares/Third_Party/FreeRTOS/Source/timers.c **** 					mtCOVERAGE_TEST_MARKER();
 633:Middlewares/Third_Party/FreeRTOS/Source/timers.c **** 				}
 634:Middlewares/Third_Party/FreeRTOS/Source/timers.c **** 			}
 635:Middlewares/Third_Party/FreeRTOS/Source/timers.c **** 		}
 636:Middlewares/Third_Party/FreeRTOS/Source/timers.c **** 		else
 637:Middlewares/Third_Party/FreeRTOS/Source/timers.c **** 		{
 638:Middlewares/Third_Party/FreeRTOS/Source/timers.c **** 			( void ) xTaskResumeAll();
 639:Middlewares/Third_Party/FreeRTOS/Source/timers.c **** 		}
 640:Middlewares/Third_Party/FreeRTOS/Source/timers.c **** 	}
 641:Middlewares/Third_Party/FreeRTOS/Source/timers.c **** }
 1313              		.loc 1 641 1
 1314 003a 24E0     		b	.L78
 1315              	.L72:
 613:Middlewares/Third_Party/FreeRTOS/Source/timers.c **** 				{
 1316              		.loc 1 613 7
 1317 003c 3B68     		ldr	r3, [r7]
 1318 003e 002B     		cmp	r3, #0
 1319 0040 08D0     		beq	.L74
 617:Middlewares/Third_Party/FreeRTOS/Source/timers.c **** 				}
 1320              		.loc 1 617 22
 1321 0042 134B     		ldr	r3, .L79
 1322 0044 1B68     		ldr	r3, [r3]
 1323 0046 1B68     		ldr	r3, [r3]
 1324 0048 002B     		cmp	r3, #0
 1325 004a 01D1     		bne	.L75
 617:Middlewares/Third_Party/FreeRTOS/Source/timers.c **** 				}
 1326              		.loc 1 617 22 is_stmt 0 discriminator 1
 1327 004c 0123     		movs	r3, #1
 1328 004e 00E0     		b	.L76
 1329              	.L75:
 617:Middlewares/Third_Party/FreeRTOS/Source/timers.c **** 				}
 1330              		.loc 1 617 22 discriminator 2
 1331 0050 0023     		movs	r3, #0
 1332              	.L76:
 617:Middlewares/Third_Party/FreeRTOS/Source/timers.c **** 				}
 1333              		.loc 1 617 20 is_stmt 1 discriminator 4
 1334 0052 3B60     		str	r3, [r7]
 1335              	.L74:
ARM GAS  C:\Users\Bunyamin\AppData\Local\Temp\ccFW9f40.s 			page 39


 620:Middlewares/Third_Party/FreeRTOS/Source/timers.c **** 
 1336              		.loc 1 620 5
 1337 0054 0F4B     		ldr	r3, .L79+4
 1338 0056 1868     		ldr	r0, [r3]
 1339 0058 7A68     		ldr	r2, [r7, #4]
 1340 005a FB68     		ldr	r3, [r7, #12]
 1341 005c D31A     		subs	r3, r2, r3
 1342 005e 3A68     		ldr	r2, [r7]
 1343 0060 1946     		mov	r1, r3
 1344 0062 FFF7FEFF 		bl	vQueueWaitForMessageRestricted
 622:Middlewares/Third_Party/FreeRTOS/Source/timers.c **** 				{
 1345              		.loc 1 622 9
 1346 0066 FFF7FEFF 		bl	xTaskResumeAll
 1347 006a 0346     		mov	r3, r0
 622:Middlewares/Third_Party/FreeRTOS/Source/timers.c **** 				{
 1348              		.loc 1 622 7
 1349 006c 002B     		cmp	r3, #0
 1350 006e 0AD1     		bne	.L78
 628:Middlewares/Third_Party/FreeRTOS/Source/timers.c **** 				}
 1351              		.loc 1 628 6
 1352 0070 094B     		ldr	r3, .L79+8
 1353 0072 4FF08052 		mov	r2, #268435456
 1354 0076 1A60     		str	r2, [r3]
 1355              		.syntax unified
 1356              	@ 628 "Middlewares/Third_Party/FreeRTOS/Source/timers.c" 1
 1357 0078 BFF34F8F 		dsb
 1358              	@ 0 "" 2
 1359              	@ 628 "Middlewares/Third_Party/FreeRTOS/Source/timers.c" 1
 1360 007c BFF36F8F 		isb
 1361              	@ 0 "" 2
 1362              		.loc 1 641 1
 1363              		.thumb
 1364              		.syntax unified
 1365 0080 01E0     		b	.L78
 1366              	.L71:
 638:Middlewares/Third_Party/FreeRTOS/Source/timers.c **** 		}
 1367              		.loc 1 638 13
 1368 0082 FFF7FEFF 		bl	xTaskResumeAll
 1369              	.L78:
 1370              		.loc 1 641 1
 1371 0086 00BF     		nop
 1372 0088 1037     		adds	r7, r7, #16
 1373              	.LCFI70:
 1374              		.cfi_def_cfa_offset 8
 1375 008a BD46     		mov	sp, r7
 1376              	.LCFI71:
 1377              		.cfi_def_cfa_register 13
 1378              		@ sp needed
 1379 008c 80BD     		pop	{r7, pc}
 1380              	.L80:
 1381 008e 00BF     		.align	2
 1382              	.L79:
 1383 0090 00000000 		.word	pxOverflowTimerList
 1384 0094 00000000 		.word	xTimerQueue
 1385 0098 04ED00E0 		.word	-536810236
 1386              		.cfi_endproc
 1387              	.LFE17:
ARM GAS  C:\Users\Bunyamin\AppData\Local\Temp\ccFW9f40.s 			page 40


 1389              		.section	.text.prvGetNextExpireTime,"ax",%progbits
 1390              		.align	1
 1391              		.syntax unified
 1392              		.thumb
 1393              		.thumb_func
 1395              	prvGetNextExpireTime:
 1396              	.LFB18:
 642:Middlewares/Third_Party/FreeRTOS/Source/timers.c **** /*-----------------------------------------------------------*/
 643:Middlewares/Third_Party/FreeRTOS/Source/timers.c **** 
 644:Middlewares/Third_Party/FreeRTOS/Source/timers.c **** static TickType_t prvGetNextExpireTime( BaseType_t * const pxListWasEmpty )
 645:Middlewares/Third_Party/FreeRTOS/Source/timers.c **** {
 1397              		.loc 1 645 1
 1398              		.cfi_startproc
 1399              		@ args = 0, pretend = 0, frame = 16
 1400              		@ frame_needed = 1, uses_anonymous_args = 0
 1401              		@ link register save eliminated.
 1402 0000 80B4     		push	{r7}
 1403              	.LCFI72:
 1404              		.cfi_def_cfa_offset 4
 1405              		.cfi_offset 7, -4
 1406 0002 85B0     		sub	sp, sp, #20
 1407              	.LCFI73:
 1408              		.cfi_def_cfa_offset 24
 1409 0004 00AF     		add	r7, sp, #0
 1410              	.LCFI74:
 1411              		.cfi_def_cfa_register 7
 1412 0006 7860     		str	r0, [r7, #4]
 646:Middlewares/Third_Party/FreeRTOS/Source/timers.c **** TickType_t xNextExpireTime;
 647:Middlewares/Third_Party/FreeRTOS/Source/timers.c **** 
 648:Middlewares/Third_Party/FreeRTOS/Source/timers.c **** 	/* Timers are listed in expiry time order, with the head of the list
 649:Middlewares/Third_Party/FreeRTOS/Source/timers.c **** 	referencing the task that will expire first.  Obtain the time at which
 650:Middlewares/Third_Party/FreeRTOS/Source/timers.c **** 	the timer with the nearest expiry time will expire.  If there are no
 651:Middlewares/Third_Party/FreeRTOS/Source/timers.c **** 	active timers then just set the next expire time to 0.  That will cause
 652:Middlewares/Third_Party/FreeRTOS/Source/timers.c **** 	this task to unblock when the tick count overflows, at which point the
 653:Middlewares/Third_Party/FreeRTOS/Source/timers.c **** 	timer lists will be switched and the next expiry time can be
 654:Middlewares/Third_Party/FreeRTOS/Source/timers.c **** 	re-assessed.  */
 655:Middlewares/Third_Party/FreeRTOS/Source/timers.c **** 	*pxListWasEmpty = listLIST_IS_EMPTY( pxCurrentTimerList );
 1413              		.loc 1 655 20
 1414 0008 0E4B     		ldr	r3, .L87
 1415 000a 1B68     		ldr	r3, [r3]
 1416 000c 1B68     		ldr	r3, [r3]
 1417 000e 002B     		cmp	r3, #0
 1418 0010 01D1     		bne	.L82
 1419              		.loc 1 655 20 is_stmt 0 discriminator 1
 1420 0012 0122     		movs	r2, #1
 1421 0014 00E0     		b	.L83
 1422              	.L82:
 1423              		.loc 1 655 20 discriminator 2
 1424 0016 0022     		movs	r2, #0
 1425              	.L83:
 1426              		.loc 1 655 18 is_stmt 1 discriminator 4
 1427 0018 7B68     		ldr	r3, [r7, #4]
 1428 001a 1A60     		str	r2, [r3]
 656:Middlewares/Third_Party/FreeRTOS/Source/timers.c **** 	if( *pxListWasEmpty == pdFALSE )
 1429              		.loc 1 656 6 discriminator 4
 1430 001c 7B68     		ldr	r3, [r7, #4]
 1431 001e 1B68     		ldr	r3, [r3]
ARM GAS  C:\Users\Bunyamin\AppData\Local\Temp\ccFW9f40.s 			page 41


 1432              		.loc 1 656 4 discriminator 4
 1433 0020 002B     		cmp	r3, #0
 1434 0022 05D1     		bne	.L84
 657:Middlewares/Third_Party/FreeRTOS/Source/timers.c **** 	{
 658:Middlewares/Third_Party/FreeRTOS/Source/timers.c **** 		xNextExpireTime = listGET_ITEM_VALUE_OF_HEAD_ENTRY( pxCurrentTimerList );
 1435              		.loc 1 658 21
 1436 0024 074B     		ldr	r3, .L87
 1437 0026 1B68     		ldr	r3, [r3]
 1438 0028 DB68     		ldr	r3, [r3, #12]
 1439              		.loc 1 658 19
 1440 002a 1B68     		ldr	r3, [r3]
 1441 002c FB60     		str	r3, [r7, #12]
 1442 002e 01E0     		b	.L85
 1443              	.L84:
 659:Middlewares/Third_Party/FreeRTOS/Source/timers.c **** 	}
 660:Middlewares/Third_Party/FreeRTOS/Source/timers.c **** 	else
 661:Middlewares/Third_Party/FreeRTOS/Source/timers.c **** 	{
 662:Middlewares/Third_Party/FreeRTOS/Source/timers.c **** 		/* Ensure the task unblocks when the tick count rolls over. */
 663:Middlewares/Third_Party/FreeRTOS/Source/timers.c **** 		xNextExpireTime = ( TickType_t ) 0U;
 1444              		.loc 1 663 19
 1445 0030 0023     		movs	r3, #0
 1446 0032 FB60     		str	r3, [r7, #12]
 1447              	.L85:
 664:Middlewares/Third_Party/FreeRTOS/Source/timers.c **** 	}
 665:Middlewares/Third_Party/FreeRTOS/Source/timers.c **** 
 666:Middlewares/Third_Party/FreeRTOS/Source/timers.c **** 	return xNextExpireTime;
 1448              		.loc 1 666 9
 1449 0034 FB68     		ldr	r3, [r7, #12]
 667:Middlewares/Third_Party/FreeRTOS/Source/timers.c **** }
 1450              		.loc 1 667 1
 1451 0036 1846     		mov	r0, r3
 1452 0038 1437     		adds	r7, r7, #20
 1453              	.LCFI75:
 1454              		.cfi_def_cfa_offset 4
 1455 003a BD46     		mov	sp, r7
 1456              	.LCFI76:
 1457              		.cfi_def_cfa_register 13
 1458              		@ sp needed
 1459 003c 5DF8047B 		ldr	r7, [sp], #4
 1460              	.LCFI77:
 1461              		.cfi_restore 7
 1462              		.cfi_def_cfa_offset 0
 1463 0040 7047     		bx	lr
 1464              	.L88:
 1465 0042 00BF     		.align	2
 1466              	.L87:
 1467 0044 00000000 		.word	pxCurrentTimerList
 1468              		.cfi_endproc
 1469              	.LFE18:
 1471              		.section	.text.prvSampleTimeNow,"ax",%progbits
 1472              		.align	1
 1473              		.syntax unified
 1474              		.thumb
 1475              		.thumb_func
 1477              	prvSampleTimeNow:
 1478              	.LFB19:
 668:Middlewares/Third_Party/FreeRTOS/Source/timers.c **** /*-----------------------------------------------------------*/
ARM GAS  C:\Users\Bunyamin\AppData\Local\Temp\ccFW9f40.s 			page 42


 669:Middlewares/Third_Party/FreeRTOS/Source/timers.c **** 
 670:Middlewares/Third_Party/FreeRTOS/Source/timers.c **** static TickType_t prvSampleTimeNow( BaseType_t * const pxTimerListsWereSwitched )
 671:Middlewares/Third_Party/FreeRTOS/Source/timers.c **** {
 1479              		.loc 1 671 1
 1480              		.cfi_startproc
 1481              		@ args = 0, pretend = 0, frame = 16
 1482              		@ frame_needed = 1, uses_anonymous_args = 0
 1483 0000 80B5     		push	{r7, lr}
 1484              	.LCFI78:
 1485              		.cfi_def_cfa_offset 8
 1486              		.cfi_offset 7, -8
 1487              		.cfi_offset 14, -4
 1488 0002 84B0     		sub	sp, sp, #16
 1489              	.LCFI79:
 1490              		.cfi_def_cfa_offset 24
 1491 0004 00AF     		add	r7, sp, #0
 1492              	.LCFI80:
 1493              		.cfi_def_cfa_register 7
 1494 0006 7860     		str	r0, [r7, #4]
 672:Middlewares/Third_Party/FreeRTOS/Source/timers.c **** TickType_t xTimeNow;
 673:Middlewares/Third_Party/FreeRTOS/Source/timers.c **** PRIVILEGED_DATA static TickType_t xLastTime = ( TickType_t ) 0U; /*lint !e956 Variable is only acce
 674:Middlewares/Third_Party/FreeRTOS/Source/timers.c **** 
 675:Middlewares/Third_Party/FreeRTOS/Source/timers.c **** 	xTimeNow = xTaskGetTickCount();
 1495              		.loc 1 675 13
 1496 0008 FFF7FEFF 		bl	xTaskGetTickCount
 1497 000c F860     		str	r0, [r7, #12]
 676:Middlewares/Third_Party/FreeRTOS/Source/timers.c **** 
 677:Middlewares/Third_Party/FreeRTOS/Source/timers.c **** 	if( xTimeNow < xLastTime )
 1498              		.loc 1 677 15
 1499 000e 0B4B     		ldr	r3, .L93
 1500 0010 1B68     		ldr	r3, [r3]
 1501              		.loc 1 677 4
 1502 0012 FA68     		ldr	r2, [r7, #12]
 1503 0014 9A42     		cmp	r2, r3
 1504 0016 05D2     		bcs	.L90
 678:Middlewares/Third_Party/FreeRTOS/Source/timers.c **** 	{
 679:Middlewares/Third_Party/FreeRTOS/Source/timers.c **** 		prvSwitchTimerLists();
 1505              		.loc 1 679 3
 1506 0018 FFF7FEFF 		bl	prvSwitchTimerLists
 680:Middlewares/Third_Party/FreeRTOS/Source/timers.c **** 		*pxTimerListsWereSwitched = pdTRUE;
 1507              		.loc 1 680 29
 1508 001c 7B68     		ldr	r3, [r7, #4]
 1509 001e 0122     		movs	r2, #1
 1510 0020 1A60     		str	r2, [r3]
 1511 0022 02E0     		b	.L91
 1512              	.L90:
 681:Middlewares/Third_Party/FreeRTOS/Source/timers.c **** 	}
 682:Middlewares/Third_Party/FreeRTOS/Source/timers.c **** 	else
 683:Middlewares/Third_Party/FreeRTOS/Source/timers.c **** 	{
 684:Middlewares/Third_Party/FreeRTOS/Source/timers.c **** 		*pxTimerListsWereSwitched = pdFALSE;
 1513              		.loc 1 684 29
 1514 0024 7B68     		ldr	r3, [r7, #4]
 1515 0026 0022     		movs	r2, #0
 1516 0028 1A60     		str	r2, [r3]
 1517              	.L91:
 685:Middlewares/Third_Party/FreeRTOS/Source/timers.c **** 	}
 686:Middlewares/Third_Party/FreeRTOS/Source/timers.c **** 
ARM GAS  C:\Users\Bunyamin\AppData\Local\Temp\ccFW9f40.s 			page 43


 687:Middlewares/Third_Party/FreeRTOS/Source/timers.c **** 	xLastTime = xTimeNow;
 1518              		.loc 1 687 12
 1519 002a 044A     		ldr	r2, .L93
 1520 002c FB68     		ldr	r3, [r7, #12]
 1521 002e 1360     		str	r3, [r2]
 688:Middlewares/Third_Party/FreeRTOS/Source/timers.c **** 
 689:Middlewares/Third_Party/FreeRTOS/Source/timers.c **** 	return xTimeNow;
 1522              		.loc 1 689 9
 1523 0030 FB68     		ldr	r3, [r7, #12]
 690:Middlewares/Third_Party/FreeRTOS/Source/timers.c **** }
 1524              		.loc 1 690 1
 1525 0032 1846     		mov	r0, r3
 1526 0034 1037     		adds	r7, r7, #16
 1527              	.LCFI81:
 1528              		.cfi_def_cfa_offset 8
 1529 0036 BD46     		mov	sp, r7
 1530              	.LCFI82:
 1531              		.cfi_def_cfa_register 13
 1532              		@ sp needed
 1533 0038 80BD     		pop	{r7, pc}
 1534              	.L94:
 1535 003a 00BF     		.align	2
 1536              	.L93:
 1537 003c 00000000 		.word	xLastTime.2
 1538              		.cfi_endproc
 1539              	.LFE19:
 1541              		.section	.text.prvInsertTimerInActiveList,"ax",%progbits
 1542              		.align	1
 1543              		.syntax unified
 1544              		.thumb
 1545              		.thumb_func
 1547              	prvInsertTimerInActiveList:
 1548              	.LFB20:
 691:Middlewares/Third_Party/FreeRTOS/Source/timers.c **** /*-----------------------------------------------------------*/
 692:Middlewares/Third_Party/FreeRTOS/Source/timers.c **** 
 693:Middlewares/Third_Party/FreeRTOS/Source/timers.c **** static BaseType_t prvInsertTimerInActiveList( Timer_t * const pxTimer, const TickType_t xNextExpiry
 694:Middlewares/Third_Party/FreeRTOS/Source/timers.c **** {
 1549              		.loc 1 694 1
 1550              		.cfi_startproc
 1551              		@ args = 0, pretend = 0, frame = 24
 1552              		@ frame_needed = 1, uses_anonymous_args = 0
 1553 0000 80B5     		push	{r7, lr}
 1554              	.LCFI83:
 1555              		.cfi_def_cfa_offset 8
 1556              		.cfi_offset 7, -8
 1557              		.cfi_offset 14, -4
 1558 0002 86B0     		sub	sp, sp, #24
 1559              	.LCFI84:
 1560              		.cfi_def_cfa_offset 32
 1561 0004 00AF     		add	r7, sp, #0
 1562              	.LCFI85:
 1563              		.cfi_def_cfa_register 7
 1564 0006 F860     		str	r0, [r7, #12]
 1565 0008 B960     		str	r1, [r7, #8]
 1566 000a 7A60     		str	r2, [r7, #4]
 1567 000c 3B60     		str	r3, [r7]
 695:Middlewares/Third_Party/FreeRTOS/Source/timers.c **** BaseType_t xProcessTimerNow = pdFALSE;
ARM GAS  C:\Users\Bunyamin\AppData\Local\Temp\ccFW9f40.s 			page 44


 1568              		.loc 1 695 12
 1569 000e 0023     		movs	r3, #0
 1570 0010 7B61     		str	r3, [r7, #20]
 696:Middlewares/Third_Party/FreeRTOS/Source/timers.c **** 
 697:Middlewares/Third_Party/FreeRTOS/Source/timers.c **** 	listSET_LIST_ITEM_VALUE( &( pxTimer->xTimerListItem ), xNextExpiryTime );
 1571              		.loc 1 697 2
 1572 0012 FB68     		ldr	r3, [r7, #12]
 1573 0014 BA68     		ldr	r2, [r7, #8]
 1574 0016 5A60     		str	r2, [r3, #4]
 698:Middlewares/Third_Party/FreeRTOS/Source/timers.c **** 	listSET_LIST_ITEM_OWNER( &( pxTimer->xTimerListItem ), pxTimer );
 1575              		.loc 1 698 2
 1576 0018 FB68     		ldr	r3, [r7, #12]
 1577 001a FA68     		ldr	r2, [r7, #12]
 1578 001c 1A61     		str	r2, [r3, #16]
 699:Middlewares/Third_Party/FreeRTOS/Source/timers.c **** 
 700:Middlewares/Third_Party/FreeRTOS/Source/timers.c **** 	if( xNextExpiryTime <= xTimeNow )
 1579              		.loc 1 700 4
 1580 001e BA68     		ldr	r2, [r7, #8]
 1581 0020 7B68     		ldr	r3, [r7, #4]
 1582 0022 9A42     		cmp	r2, r3
 1583 0024 12D8     		bhi	.L96
 701:Middlewares/Third_Party/FreeRTOS/Source/timers.c **** 	{
 702:Middlewares/Third_Party/FreeRTOS/Source/timers.c **** 		/* Has the expiry time elapsed between the command to start/reset a
 703:Middlewares/Third_Party/FreeRTOS/Source/timers.c **** 		timer was issued, and the time the command was processed? */
 704:Middlewares/Third_Party/FreeRTOS/Source/timers.c **** 		if( ( ( TickType_t ) ( xTimeNow - xCommandTime ) ) >= pxTimer->xTimerPeriodInTicks ) /*lint !e961
 1584              		.loc 1 704 35
 1585 0026 7A68     		ldr	r2, [r7, #4]
 1586 0028 3B68     		ldr	r3, [r7]
 1587 002a D21A     		subs	r2, r2, r3
 1588              		.loc 1 704 64
 1589 002c FB68     		ldr	r3, [r7, #12]
 1590 002e 9B69     		ldr	r3, [r3, #24]
 1591              		.loc 1 704 5
 1592 0030 9A42     		cmp	r2, r3
 1593 0032 02D3     		bcc	.L97
 705:Middlewares/Third_Party/FreeRTOS/Source/timers.c **** 		{
 706:Middlewares/Third_Party/FreeRTOS/Source/timers.c **** 			/* The time between a command being issued and the command being
 707:Middlewares/Third_Party/FreeRTOS/Source/timers.c **** 			processed actually exceeds the timers period.  */
 708:Middlewares/Third_Party/FreeRTOS/Source/timers.c **** 			xProcessTimerNow = pdTRUE;
 1594              		.loc 1 708 21
 1595 0034 0123     		movs	r3, #1
 1596 0036 7B61     		str	r3, [r7, #20]
 1597 0038 1BE0     		b	.L98
 1598              	.L97:
 709:Middlewares/Third_Party/FreeRTOS/Source/timers.c **** 		}
 710:Middlewares/Third_Party/FreeRTOS/Source/timers.c **** 		else
 711:Middlewares/Third_Party/FreeRTOS/Source/timers.c **** 		{
 712:Middlewares/Third_Party/FreeRTOS/Source/timers.c **** 			vListInsert( pxOverflowTimerList, &( pxTimer->xTimerListItem ) );
 1599              		.loc 1 712 4
 1600 003a 104B     		ldr	r3, .L101
 1601 003c 1A68     		ldr	r2, [r3]
 1602 003e FB68     		ldr	r3, [r7, #12]
 1603 0040 0433     		adds	r3, r3, #4
 1604 0042 1946     		mov	r1, r3
 1605 0044 1046     		mov	r0, r2
 1606 0046 FFF7FEFF 		bl	vListInsert
 1607 004a 12E0     		b	.L98
ARM GAS  C:\Users\Bunyamin\AppData\Local\Temp\ccFW9f40.s 			page 45


 1608              	.L96:
 713:Middlewares/Third_Party/FreeRTOS/Source/timers.c **** 		}
 714:Middlewares/Third_Party/FreeRTOS/Source/timers.c **** 	}
 715:Middlewares/Third_Party/FreeRTOS/Source/timers.c **** 	else
 716:Middlewares/Third_Party/FreeRTOS/Source/timers.c **** 	{
 717:Middlewares/Third_Party/FreeRTOS/Source/timers.c **** 		if( ( xTimeNow < xCommandTime ) && ( xNextExpiryTime >= xCommandTime ) )
 1609              		.loc 1 717 5
 1610 004c 7A68     		ldr	r2, [r7, #4]
 1611 004e 3B68     		ldr	r3, [r7]
 1612 0050 9A42     		cmp	r2, r3
 1613 0052 06D2     		bcs	.L99
 1614              		.loc 1 717 35 discriminator 1
 1615 0054 BA68     		ldr	r2, [r7, #8]
 1616 0056 3B68     		ldr	r3, [r7]
 1617 0058 9A42     		cmp	r2, r3
 1618 005a 02D3     		bcc	.L99
 718:Middlewares/Third_Party/FreeRTOS/Source/timers.c **** 		{
 719:Middlewares/Third_Party/FreeRTOS/Source/timers.c **** 			/* If, since the command was issued, the tick count has overflowed
 720:Middlewares/Third_Party/FreeRTOS/Source/timers.c **** 			but the expiry time has not, then the timer must have already passed
 721:Middlewares/Third_Party/FreeRTOS/Source/timers.c **** 			its expiry time and should be processed immediately. */
 722:Middlewares/Third_Party/FreeRTOS/Source/timers.c **** 			xProcessTimerNow = pdTRUE;
 1619              		.loc 1 722 21
 1620 005c 0123     		movs	r3, #1
 1621 005e 7B61     		str	r3, [r7, #20]
 1622 0060 07E0     		b	.L98
 1623              	.L99:
 723:Middlewares/Third_Party/FreeRTOS/Source/timers.c **** 		}
 724:Middlewares/Third_Party/FreeRTOS/Source/timers.c **** 		else
 725:Middlewares/Third_Party/FreeRTOS/Source/timers.c **** 		{
 726:Middlewares/Third_Party/FreeRTOS/Source/timers.c **** 			vListInsert( pxCurrentTimerList, &( pxTimer->xTimerListItem ) );
 1624              		.loc 1 726 4
 1625 0062 074B     		ldr	r3, .L101+4
 1626 0064 1A68     		ldr	r2, [r3]
 1627 0066 FB68     		ldr	r3, [r7, #12]
 1628 0068 0433     		adds	r3, r3, #4
 1629 006a 1946     		mov	r1, r3
 1630 006c 1046     		mov	r0, r2
 1631 006e FFF7FEFF 		bl	vListInsert
 1632              	.L98:
 727:Middlewares/Third_Party/FreeRTOS/Source/timers.c **** 		}
 728:Middlewares/Third_Party/FreeRTOS/Source/timers.c **** 	}
 729:Middlewares/Third_Party/FreeRTOS/Source/timers.c **** 
 730:Middlewares/Third_Party/FreeRTOS/Source/timers.c **** 	return xProcessTimerNow;
 1633              		.loc 1 730 9
 1634 0072 7B69     		ldr	r3, [r7, #20]
 731:Middlewares/Third_Party/FreeRTOS/Source/timers.c **** }
 1635              		.loc 1 731 1
 1636 0074 1846     		mov	r0, r3
 1637 0076 1837     		adds	r7, r7, #24
 1638              	.LCFI86:
 1639              		.cfi_def_cfa_offset 8
 1640 0078 BD46     		mov	sp, r7
 1641              	.LCFI87:
 1642              		.cfi_def_cfa_register 13
 1643              		@ sp needed
 1644 007a 80BD     		pop	{r7, pc}
 1645              	.L102:
ARM GAS  C:\Users\Bunyamin\AppData\Local\Temp\ccFW9f40.s 			page 46


 1646              		.align	2
 1647              	.L101:
 1648 007c 00000000 		.word	pxOverflowTimerList
 1649 0080 00000000 		.word	pxCurrentTimerList
 1650              		.cfi_endproc
 1651              	.LFE20:
 1653              		.section	.text.prvProcessReceivedCommands,"ax",%progbits
 1654              		.align	1
 1655              		.syntax unified
 1656              		.thumb
 1657              		.thumb_func
 1659              	prvProcessReceivedCommands:
 1660              	.LFB21:
 732:Middlewares/Third_Party/FreeRTOS/Source/timers.c **** /*-----------------------------------------------------------*/
 733:Middlewares/Third_Party/FreeRTOS/Source/timers.c **** 
 734:Middlewares/Third_Party/FreeRTOS/Source/timers.c **** static void	prvProcessReceivedCommands( void )
 735:Middlewares/Third_Party/FreeRTOS/Source/timers.c **** {
 1661              		.loc 1 735 1
 1662              		.cfi_startproc
 1663              		@ args = 0, pretend = 0, frame = 48
 1664              		@ frame_needed = 1, uses_anonymous_args = 0
 1665 0000 80B5     		push	{r7, lr}
 1666              	.LCFI88:
 1667              		.cfi_def_cfa_offset 8
 1668              		.cfi_offset 7, -8
 1669              		.cfi_offset 14, -4
 1670 0002 8EB0     		sub	sp, sp, #56
 1671              	.LCFI89:
 1672              		.cfi_def_cfa_offset 64
 1673 0004 02AF     		add	r7, sp, #8
 1674              	.LCFI90:
 1675              		.cfi_def_cfa 7, 56
 736:Middlewares/Third_Party/FreeRTOS/Source/timers.c **** DaemonTaskMessage_t xMessage;
 737:Middlewares/Third_Party/FreeRTOS/Source/timers.c **** Timer_t *pxTimer;
 738:Middlewares/Third_Party/FreeRTOS/Source/timers.c **** BaseType_t xTimerListsWereSwitched, xResult;
 739:Middlewares/Third_Party/FreeRTOS/Source/timers.c **** TickType_t xTimeNow;
 740:Middlewares/Third_Party/FreeRTOS/Source/timers.c **** 
 741:Middlewares/Third_Party/FreeRTOS/Source/timers.c **** 	while( xQueueReceive( xTimerQueue, &xMessage, tmrNO_DELAY ) != pdFAIL ) /*lint !e603 xMessage does
 1676              		.loc 1 741 7
 1677 0006 CAE0     		b	.L104
 1678              	.L121:
 742:Middlewares/Third_Party/FreeRTOS/Source/timers.c **** 	{
 743:Middlewares/Third_Party/FreeRTOS/Source/timers.c **** 		#if ( INCLUDE_xTimerPendFunctionCall == 1 )
 744:Middlewares/Third_Party/FreeRTOS/Source/timers.c **** 		{
 745:Middlewares/Third_Party/FreeRTOS/Source/timers.c **** 			/* Negative commands are pended function calls rather than timer
 746:Middlewares/Third_Party/FreeRTOS/Source/timers.c **** 			commands. */
 747:Middlewares/Third_Party/FreeRTOS/Source/timers.c **** 			if( xMessage.xMessageID < ( BaseType_t ) 0 )
 1679              		.loc 1 747 16
 1680 0008 7B68     		ldr	r3, [r7, #4]
 1681              		.loc 1 747 6
 1682 000a 002B     		cmp	r3, #0
 1683 000c 18DA     		bge	.L105
 1684              	.LBB71:
 748:Middlewares/Third_Party/FreeRTOS/Source/timers.c **** 			{
 749:Middlewares/Third_Party/FreeRTOS/Source/timers.c **** 				const CallbackParameters_t * const pxCallback = &( xMessage.u.xCallbackParameters );
 1685              		.loc 1 749 40
 1686 000e 3B1D     		adds	r3, r7, #4
ARM GAS  C:\Users\Bunyamin\AppData\Local\Temp\ccFW9f40.s 			page 47


 1687 0010 0433     		adds	r3, r3, #4
 1688 0012 FB62     		str	r3, [r7, #44]
 750:Middlewares/Third_Party/FreeRTOS/Source/timers.c **** 
 751:Middlewares/Third_Party/FreeRTOS/Source/timers.c **** 				/* The timer uses the xCallbackParameters member to request a
 752:Middlewares/Third_Party/FreeRTOS/Source/timers.c **** 				callback be executed.  Check the callback is not NULL. */
 753:Middlewares/Third_Party/FreeRTOS/Source/timers.c **** 				configASSERT( pxCallback );
 1689              		.loc 1 753 5
 1690 0014 FB6A     		ldr	r3, [r7, #44]
 1691 0016 002B     		cmp	r3, #0
 1692 0018 0AD1     		bne	.L106
 1693              	.LBB72:
 1694              	.LBB73:
 195:Middlewares/Third_Party/FreeRTOS/Source/portable/GCC/ARM_CM4F/portmacro.h **** 	(
 1695              		.loc 2 195 2
 1696              		.syntax unified
 1697              	@ 195 "Middlewares/Third_Party/FreeRTOS/Source/portable/GCC/ARM_CM4F/portmacro.h" 1
 1698 001a 4FF05003 			mov r3, #80												
 1699 001e 83F31188 		msr basepri, r3											
 1700 0022 BFF36F8F 		isb														
 1701 0026 BFF34F8F 		dsb														
 1702              	
 1703              	@ 0 "" 2
 1704              		.thumb
 1705              		.syntax unified
 1706 002a FB61     		str	r3, [r7, #28]
 1707              		.loc 2 203 1
 1708 002c 00BF     		nop
 1709              	.L107:
 1710              	.LBE73:
 1711              	.LBE72:
 1712              		.loc 1 753 5 discriminator 1
 1713 002e FEE7     		b	.L107
 1714              	.L106:
 754:Middlewares/Third_Party/FreeRTOS/Source/timers.c **** 
 755:Middlewares/Third_Party/FreeRTOS/Source/timers.c **** 				/* Call the function. */
 756:Middlewares/Third_Party/FreeRTOS/Source/timers.c **** 				pxCallback->pxCallbackFunction( pxCallback->pvParameter1, pxCallback->ulParameter2 );
 1715              		.loc 1 756 15
 1716 0030 FB6A     		ldr	r3, [r7, #44]
 1717 0032 1B68     		ldr	r3, [r3]
 1718              		.loc 1 756 47
 1719 0034 FA6A     		ldr	r2, [r7, #44]
 1720 0036 5068     		ldr	r0, [r2, #4]
 1721              		.loc 1 756 73
 1722 0038 FA6A     		ldr	r2, [r7, #44]
 1723 003a 9268     		ldr	r2, [r2, #8]
 1724              		.loc 1 756 5
 1725 003c 1146     		mov	r1, r2
 1726 003e 9847     		blx	r3
 1727              	.LVL1:
 1728              	.L105:
 1729              	.LBE71:
 757:Middlewares/Third_Party/FreeRTOS/Source/timers.c **** 			}
 758:Middlewares/Third_Party/FreeRTOS/Source/timers.c **** 			else
 759:Middlewares/Third_Party/FreeRTOS/Source/timers.c **** 			{
 760:Middlewares/Third_Party/FreeRTOS/Source/timers.c **** 				mtCOVERAGE_TEST_MARKER();
 761:Middlewares/Third_Party/FreeRTOS/Source/timers.c **** 			}
 762:Middlewares/Third_Party/FreeRTOS/Source/timers.c **** 		}
ARM GAS  C:\Users\Bunyamin\AppData\Local\Temp\ccFW9f40.s 			page 48


 763:Middlewares/Third_Party/FreeRTOS/Source/timers.c **** 		#endif /* INCLUDE_xTimerPendFunctionCall */
 764:Middlewares/Third_Party/FreeRTOS/Source/timers.c **** 
 765:Middlewares/Third_Party/FreeRTOS/Source/timers.c **** 		/* Commands that are positive are timer commands rather than pended
 766:Middlewares/Third_Party/FreeRTOS/Source/timers.c **** 		function calls. */
 767:Middlewares/Third_Party/FreeRTOS/Source/timers.c **** 		if( xMessage.xMessageID >= ( BaseType_t ) 0 )
 1730              		.loc 1 767 15
 1731 0040 7B68     		ldr	r3, [r7, #4]
 1732              		.loc 1 767 5
 1733 0042 002B     		cmp	r3, #0
 1734 0044 C0F2AB80 		blt	.L104
 768:Middlewares/Third_Party/FreeRTOS/Source/timers.c **** 		{
 769:Middlewares/Third_Party/FreeRTOS/Source/timers.c **** 			/* The messages uses the xTimerParameters member to work on a
 770:Middlewares/Third_Party/FreeRTOS/Source/timers.c **** 			software timer. */
 771:Middlewares/Third_Party/FreeRTOS/Source/timers.c **** 			pxTimer = xMessage.u.xTimerParameters.pxTimer;
 1735              		.loc 1 771 12
 1736 0048 FB68     		ldr	r3, [r7, #12]
 1737 004a BB62     		str	r3, [r7, #40]
 772:Middlewares/Third_Party/FreeRTOS/Source/timers.c **** 
 773:Middlewares/Third_Party/FreeRTOS/Source/timers.c **** 			if( listIS_CONTAINED_WITHIN( NULL, &( pxTimer->xTimerListItem ) ) == pdFALSE ) /*lint !e961. The
 1738              		.loc 1 773 8
 1739 004c BB6A     		ldr	r3, [r7, #40]
 1740 004e 5B69     		ldr	r3, [r3, #20]
 1741              		.loc 1 773 6
 1742 0050 002B     		cmp	r3, #0
 1743 0052 04D0     		beq	.L108
 774:Middlewares/Third_Party/FreeRTOS/Source/timers.c **** 			{
 775:Middlewares/Third_Party/FreeRTOS/Source/timers.c **** 				/* The timer is in a list, remove it. */
 776:Middlewares/Third_Party/FreeRTOS/Source/timers.c **** 				( void ) uxListRemove( &( pxTimer->xTimerListItem ) );
 1744              		.loc 1 776 14
 1745 0054 BB6A     		ldr	r3, [r7, #40]
 1746 0056 0433     		adds	r3, r3, #4
 1747 0058 1846     		mov	r0, r3
 1748 005a FFF7FEFF 		bl	uxListRemove
 1749              	.L108:
 777:Middlewares/Third_Party/FreeRTOS/Source/timers.c **** 			}
 778:Middlewares/Third_Party/FreeRTOS/Source/timers.c **** 			else
 779:Middlewares/Third_Party/FreeRTOS/Source/timers.c **** 			{
 780:Middlewares/Third_Party/FreeRTOS/Source/timers.c **** 				mtCOVERAGE_TEST_MARKER();
 781:Middlewares/Third_Party/FreeRTOS/Source/timers.c **** 			}
 782:Middlewares/Third_Party/FreeRTOS/Source/timers.c **** 
 783:Middlewares/Third_Party/FreeRTOS/Source/timers.c **** 			traceTIMER_COMMAND_RECEIVED( pxTimer, xMessage.xMessageID, xMessage.u.xTimerParameters.xMessageV
 784:Middlewares/Third_Party/FreeRTOS/Source/timers.c **** 
 785:Middlewares/Third_Party/FreeRTOS/Source/timers.c **** 			/* In this case the xTimerListsWereSwitched parameter is not used, but
 786:Middlewares/Third_Party/FreeRTOS/Source/timers.c **** 			it must be present in the function call.  prvSampleTimeNow() must be
 787:Middlewares/Third_Party/FreeRTOS/Source/timers.c **** 			called after the message is received from xTimerQueue so there is no
 788:Middlewares/Third_Party/FreeRTOS/Source/timers.c **** 			possibility of a higher priority task adding a message to the message
 789:Middlewares/Third_Party/FreeRTOS/Source/timers.c **** 			queue with a time that is ahead of the timer daemon task (because it
 790:Middlewares/Third_Party/FreeRTOS/Source/timers.c **** 			pre-empted the timer daemon task after the xTimeNow value was set). */
 791:Middlewares/Third_Party/FreeRTOS/Source/timers.c **** 			xTimeNow = prvSampleTimeNow( &xTimerListsWereSwitched );
 1750              		.loc 1 791 15
 1751 005e 3B46     		mov	r3, r7
 1752 0060 1846     		mov	r0, r3
 1753 0062 FFF7FEFF 		bl	prvSampleTimeNow
 1754 0066 7862     		str	r0, [r7, #36]
 792:Middlewares/Third_Party/FreeRTOS/Source/timers.c **** 
 793:Middlewares/Third_Party/FreeRTOS/Source/timers.c **** 			switch( xMessage.xMessageID )
 1755              		.loc 1 793 20
ARM GAS  C:\Users\Bunyamin\AppData\Local\Temp\ccFW9f40.s 			page 49


 1756 0068 7B68     		ldr	r3, [r7, #4]
 1757              		.loc 1 793 4
 1758 006a 092B     		cmp	r3, #9
 1759 006c 00F29680 		bhi	.L122
 1760 0070 01A2     		adr	r2, .L111
 1761 0072 52F823F0 		ldr	pc, [r2, r3, lsl #2]
 1762 0076 00BF     		.p2align 2
 1763              	.L111:
 1764 0078 A1000000 		.word	.L113+1
 1765 007c A1000000 		.word	.L113+1
 1766 0080 A1000000 		.word	.L113+1
 1767 0084 15010000 		.word	.L112+1
 1768 0088 29010000 		.word	.L110+1
 1769 008c 73010000 		.word	.L114+1
 1770 0090 A1000000 		.word	.L113+1
 1771 0094 A1000000 		.word	.L113+1
 1772 0098 15010000 		.word	.L112+1
 1773 009c 29010000 		.word	.L110+1
 1774              		.p2align 1
 1775              	.L113:
 794:Middlewares/Third_Party/FreeRTOS/Source/timers.c **** 			{
 795:Middlewares/Third_Party/FreeRTOS/Source/timers.c **** 				case tmrCOMMAND_START :
 796:Middlewares/Third_Party/FreeRTOS/Source/timers.c **** 				case tmrCOMMAND_START_FROM_ISR :
 797:Middlewares/Third_Party/FreeRTOS/Source/timers.c **** 				case tmrCOMMAND_RESET :
 798:Middlewares/Third_Party/FreeRTOS/Source/timers.c **** 				case tmrCOMMAND_RESET_FROM_ISR :
 799:Middlewares/Third_Party/FreeRTOS/Source/timers.c **** 				case tmrCOMMAND_START_DONT_TRACE :
 800:Middlewares/Third_Party/FreeRTOS/Source/timers.c **** 					/* Start or restart a timer. */
 801:Middlewares/Third_Party/FreeRTOS/Source/timers.c **** 					pxTimer->ucStatus |= tmrSTATUS_IS_ACTIVE;
 1776              		.loc 1 801 24
 1777 00a0 BB6A     		ldr	r3, [r7, #40]
 1778 00a2 93F82830 		ldrb	r3, [r3, #40]	@ zero_extendqisi2
 1779 00a6 43F00103 		orr	r3, r3, #1
 1780 00aa DAB2     		uxtb	r2, r3
 1781 00ac BB6A     		ldr	r3, [r7, #40]
 1782 00ae 83F82820 		strb	r2, [r3, #40]
 802:Middlewares/Third_Party/FreeRTOS/Source/timers.c **** 					if( prvInsertTimerInActiveList( pxTimer,  xMessage.u.xTimerParameters.xMessageValue + pxTimer-
 1783              		.loc 1 802 75
 1784 00b2 BA68     		ldr	r2, [r7, #8]
 1785              		.loc 1 802 99
 1786 00b4 BB6A     		ldr	r3, [r7, #40]
 1787 00b6 9B69     		ldr	r3, [r3, #24]
 1788              		.loc 1 802 10
 1789 00b8 D118     		adds	r1, r2, r3
 1790 00ba BB68     		ldr	r3, [r7, #8]
 1791 00bc 7A6A     		ldr	r2, [r7, #36]
 1792 00be B86A     		ldr	r0, [r7, #40]
 1793 00c0 FFF7FEFF 		bl	prvInsertTimerInActiveList
 1794 00c4 0346     		mov	r3, r0
 1795              		.loc 1 802 8
 1796 00c6 002B     		cmp	r3, #0
 1797 00c8 69D0     		beq	.L104
 803:Middlewares/Third_Party/FreeRTOS/Source/timers.c **** 					{
 804:Middlewares/Third_Party/FreeRTOS/Source/timers.c **** 						/* The timer expired before it was added to the active
 805:Middlewares/Third_Party/FreeRTOS/Source/timers.c **** 						timer list.  Process it now. */
 806:Middlewares/Third_Party/FreeRTOS/Source/timers.c **** 						pxTimer->pxCallbackFunction( ( TimerHandle_t ) pxTimer );
 1798              		.loc 1 806 14
 1799 00ca BB6A     		ldr	r3, [r7, #40]
ARM GAS  C:\Users\Bunyamin\AppData\Local\Temp\ccFW9f40.s 			page 50


 1800 00cc 1B6A     		ldr	r3, [r3, #32]
 1801              		.loc 1 806 7
 1802 00ce B86A     		ldr	r0, [r7, #40]
 1803 00d0 9847     		blx	r3
 1804              	.LVL2:
 807:Middlewares/Third_Party/FreeRTOS/Source/timers.c **** 						traceTIMER_EXPIRED( pxTimer );
 808:Middlewares/Third_Party/FreeRTOS/Source/timers.c **** 
 809:Middlewares/Third_Party/FreeRTOS/Source/timers.c **** 						if( ( pxTimer->ucStatus & tmrSTATUS_IS_AUTORELOAD ) != 0 )
 1805              		.loc 1 809 20
 1806 00d2 BB6A     		ldr	r3, [r7, #40]
 1807 00d4 93F82830 		ldrb	r3, [r3, #40]	@ zero_extendqisi2
 1808              		.loc 1 809 31
 1809 00d8 03F00403 		and	r3, r3, #4
 1810              		.loc 1 809 9
 1811 00dc 002B     		cmp	r3, #0
 1812 00de 5ED0     		beq	.L104
 810:Middlewares/Third_Party/FreeRTOS/Source/timers.c **** 						{
 811:Middlewares/Third_Party/FreeRTOS/Source/timers.c **** 							xResult = xTimerGenericCommand( pxTimer, tmrCOMMAND_START_DONT_TRACE, xMessage.u.xTimerParam
 1813              		.loc 1 811 105
 1814 00e0 BA68     		ldr	r2, [r7, #8]
 1815              		.loc 1 811 129
 1816 00e2 BB6A     		ldr	r3, [r7, #40]
 1817 00e4 9B69     		ldr	r3, [r3, #24]
 1818              		.loc 1 811 18
 1819 00e6 1A44     		add	r2, r2, r3
 1820 00e8 0023     		movs	r3, #0
 1821 00ea 0093     		str	r3, [sp]
 1822 00ec 0023     		movs	r3, #0
 1823 00ee 0021     		movs	r1, #0
 1824 00f0 B86A     		ldr	r0, [r7, #40]
 1825 00f2 FFF7FEFF 		bl	xTimerGenericCommand
 1826 00f6 3862     		str	r0, [r7, #32]
 812:Middlewares/Third_Party/FreeRTOS/Source/timers.c **** 							configASSERT( xResult );
 1827              		.loc 1 812 8
 1828 00f8 3B6A     		ldr	r3, [r7, #32]
 1829 00fa 002B     		cmp	r3, #0
 1830 00fc 4FD1     		bne	.L104
 1831              	.LBB74:
 1832              	.LBB75:
 195:Middlewares/Third_Party/FreeRTOS/Source/portable/GCC/ARM_CM4F/portmacro.h **** 	(
 1833              		.loc 2 195 2
 1834              		.syntax unified
 1835              	@ 195 "Middlewares/Third_Party/FreeRTOS/Source/portable/GCC/ARM_CM4F/portmacro.h" 1
 1836 00fe 4FF05003 			mov r3, #80												
 1837 0102 83F31188 		msr basepri, r3											
 1838 0106 BFF36F8F 		isb														
 1839 010a BFF34F8F 		dsb														
 1840              	
 1841              	@ 0 "" 2
 1842              		.thumb
 1843              		.syntax unified
 1844 010e BB61     		str	r3, [r7, #24]
 1845              		.loc 2 203 1
 1846 0110 00BF     		nop
 1847              	.L116:
 1848              	.LBE75:
 1849              	.LBE74:
ARM GAS  C:\Users\Bunyamin\AppData\Local\Temp\ccFW9f40.s 			page 51


 1850              		.loc 1 812 8 discriminator 2
 1851 0112 FEE7     		b	.L116
 1852              	.L112:
 813:Middlewares/Third_Party/FreeRTOS/Source/timers.c **** 							( void ) xResult;
 814:Middlewares/Third_Party/FreeRTOS/Source/timers.c **** 						}
 815:Middlewares/Third_Party/FreeRTOS/Source/timers.c **** 						else
 816:Middlewares/Third_Party/FreeRTOS/Source/timers.c **** 						{
 817:Middlewares/Third_Party/FreeRTOS/Source/timers.c **** 							mtCOVERAGE_TEST_MARKER();
 818:Middlewares/Third_Party/FreeRTOS/Source/timers.c **** 						}
 819:Middlewares/Third_Party/FreeRTOS/Source/timers.c **** 					}
 820:Middlewares/Third_Party/FreeRTOS/Source/timers.c **** 					else
 821:Middlewares/Third_Party/FreeRTOS/Source/timers.c **** 					{
 822:Middlewares/Third_Party/FreeRTOS/Source/timers.c **** 						mtCOVERAGE_TEST_MARKER();
 823:Middlewares/Third_Party/FreeRTOS/Source/timers.c **** 					}
 824:Middlewares/Third_Party/FreeRTOS/Source/timers.c **** 					break;
 825:Middlewares/Third_Party/FreeRTOS/Source/timers.c **** 
 826:Middlewares/Third_Party/FreeRTOS/Source/timers.c **** 				case tmrCOMMAND_STOP :
 827:Middlewares/Third_Party/FreeRTOS/Source/timers.c **** 				case tmrCOMMAND_STOP_FROM_ISR :
 828:Middlewares/Third_Party/FreeRTOS/Source/timers.c **** 					/* The timer has already been removed from the active list. */
 829:Middlewares/Third_Party/FreeRTOS/Source/timers.c **** 					pxTimer->ucStatus &= ~tmrSTATUS_IS_ACTIVE;
 1853              		.loc 1 829 24
 1854 0114 BB6A     		ldr	r3, [r7, #40]
 1855 0116 93F82830 		ldrb	r3, [r3, #40]	@ zero_extendqisi2
 1856 011a 23F00103 		bic	r3, r3, #1
 1857 011e DAB2     		uxtb	r2, r3
 1858 0120 BB6A     		ldr	r3, [r7, #40]
 1859 0122 83F82820 		strb	r2, [r3, #40]
 830:Middlewares/Third_Party/FreeRTOS/Source/timers.c **** 					break;
 1860              		.loc 1 830 6
 1861 0126 3AE0     		b	.L104
 1862              	.L110:
 831:Middlewares/Third_Party/FreeRTOS/Source/timers.c **** 
 832:Middlewares/Third_Party/FreeRTOS/Source/timers.c **** 				case tmrCOMMAND_CHANGE_PERIOD :
 833:Middlewares/Third_Party/FreeRTOS/Source/timers.c **** 				case tmrCOMMAND_CHANGE_PERIOD_FROM_ISR :
 834:Middlewares/Third_Party/FreeRTOS/Source/timers.c **** 					pxTimer->ucStatus |= tmrSTATUS_IS_ACTIVE;
 1863              		.loc 1 834 24
 1864 0128 BB6A     		ldr	r3, [r7, #40]
 1865 012a 93F82830 		ldrb	r3, [r3, #40]	@ zero_extendqisi2
 1866 012e 43F00103 		orr	r3, r3, #1
 1867 0132 DAB2     		uxtb	r2, r3
 1868 0134 BB6A     		ldr	r3, [r7, #40]
 1869 0136 83F82820 		strb	r2, [r3, #40]
 835:Middlewares/Third_Party/FreeRTOS/Source/timers.c **** 					pxTimer->xTimerPeriodInTicks = xMessage.u.xTimerParameters.xMessageValue;
 1870              		.loc 1 835 64
 1871 013a BA68     		ldr	r2, [r7, #8]
 1872              		.loc 1 835 35
 1873 013c BB6A     		ldr	r3, [r7, #40]
 1874 013e 9A61     		str	r2, [r3, #24]
 836:Middlewares/Third_Party/FreeRTOS/Source/timers.c **** 					configASSERT( ( pxTimer->xTimerPeriodInTicks > 0 ) );
 1875              		.loc 1 836 6
 1876 0140 BB6A     		ldr	r3, [r7, #40]
 1877 0142 9B69     		ldr	r3, [r3, #24]
 1878 0144 002B     		cmp	r3, #0
 1879 0146 0AD1     		bne	.L117
 1880              	.LBB76:
 1881              	.LBB77:
 195:Middlewares/Third_Party/FreeRTOS/Source/portable/GCC/ARM_CM4F/portmacro.h **** 	(
ARM GAS  C:\Users\Bunyamin\AppData\Local\Temp\ccFW9f40.s 			page 52


 1882              		.loc 2 195 2
 1883              		.syntax unified
 1884              	@ 195 "Middlewares/Third_Party/FreeRTOS/Source/portable/GCC/ARM_CM4F/portmacro.h" 1
 1885 0148 4FF05003 			mov r3, #80												
 1886 014c 83F31188 		msr basepri, r3											
 1887 0150 BFF36F8F 		isb														
 1888 0154 BFF34F8F 		dsb														
 1889              	
 1890              	@ 0 "" 2
 1891              		.thumb
 1892              		.syntax unified
 1893 0158 7B61     		str	r3, [r7, #20]
 1894              		.loc 2 203 1
 1895 015a 00BF     		nop
 1896              	.L118:
 1897              	.LBE77:
 1898              	.LBE76:
 1899              		.loc 1 836 6 discriminator 5
 1900 015c FEE7     		b	.L118
 1901              	.L117:
 837:Middlewares/Third_Party/FreeRTOS/Source/timers.c **** 
 838:Middlewares/Third_Party/FreeRTOS/Source/timers.c **** 					/* The new period does not really have a reference, and can
 839:Middlewares/Third_Party/FreeRTOS/Source/timers.c **** 					be longer or shorter than the old one.  The command time is
 840:Middlewares/Third_Party/FreeRTOS/Source/timers.c **** 					therefore set to the current time, and as the period cannot
 841:Middlewares/Third_Party/FreeRTOS/Source/timers.c **** 					be zero the next expiry time can only be in the future,
 842:Middlewares/Third_Party/FreeRTOS/Source/timers.c **** 					meaning (unlike for the xTimerStart() case above) there is
 843:Middlewares/Third_Party/FreeRTOS/Source/timers.c **** 					no fail case that needs to be handled here. */
 844:Middlewares/Third_Party/FreeRTOS/Source/timers.c **** 					( void ) prvInsertTimerInActiveList( pxTimer, ( xTimeNow + pxTimer->xTimerPeriodInTicks ), xTi
 1902              		.loc 1 844 72
 1903 015e BB6A     		ldr	r3, [r7, #40]
 1904 0160 9A69     		ldr	r2, [r3, #24]
 1905              		.loc 1 844 15
 1906 0162 7B6A     		ldr	r3, [r7, #36]
 1907 0164 D118     		adds	r1, r2, r3
 1908 0166 7B6A     		ldr	r3, [r7, #36]
 1909 0168 7A6A     		ldr	r2, [r7, #36]
 1910 016a B86A     		ldr	r0, [r7, #40]
 1911 016c FFF7FEFF 		bl	prvInsertTimerInActiveList
 845:Middlewares/Third_Party/FreeRTOS/Source/timers.c **** 					break;
 1912              		.loc 1 845 6
 1913 0170 15E0     		b	.L104
 1914              	.L114:
 846:Middlewares/Third_Party/FreeRTOS/Source/timers.c **** 
 847:Middlewares/Third_Party/FreeRTOS/Source/timers.c **** 				case tmrCOMMAND_DELETE :
 848:Middlewares/Third_Party/FreeRTOS/Source/timers.c **** 					#if ( configSUPPORT_DYNAMIC_ALLOCATION == 1 )
 849:Middlewares/Third_Party/FreeRTOS/Source/timers.c **** 					{
 850:Middlewares/Third_Party/FreeRTOS/Source/timers.c **** 						/* The timer has already been removed from the active list,
 851:Middlewares/Third_Party/FreeRTOS/Source/timers.c **** 						just free up the memory if the memory was dynamically
 852:Middlewares/Third_Party/FreeRTOS/Source/timers.c **** 						allocated. */
 853:Middlewares/Third_Party/FreeRTOS/Source/timers.c **** 						if( ( pxTimer->ucStatus & tmrSTATUS_IS_STATICALLY_ALLOCATED ) == ( uint8_t ) 0 )
 1915              		.loc 1 853 20
 1916 0172 BB6A     		ldr	r3, [r7, #40]
 1917 0174 93F82830 		ldrb	r3, [r3, #40]	@ zero_extendqisi2
 1918              		.loc 1 853 31
 1919 0178 03F00203 		and	r3, r3, #2
 1920              		.loc 1 853 9
 1921 017c 002B     		cmp	r3, #0
ARM GAS  C:\Users\Bunyamin\AppData\Local\Temp\ccFW9f40.s 			page 53


 1922 017e 03D1     		bne	.L119
 854:Middlewares/Third_Party/FreeRTOS/Source/timers.c **** 						{
 855:Middlewares/Third_Party/FreeRTOS/Source/timers.c **** 							vPortFree( pxTimer );
 1923              		.loc 1 855 8
 1924 0180 B86A     		ldr	r0, [r7, #40]
 1925 0182 FFF7FEFF 		bl	vPortFree
 1926 0186 0AE0     		b	.L104
 1927              	.L119:
 856:Middlewares/Third_Party/FreeRTOS/Source/timers.c **** 						}
 857:Middlewares/Third_Party/FreeRTOS/Source/timers.c **** 						else
 858:Middlewares/Third_Party/FreeRTOS/Source/timers.c **** 						{
 859:Middlewares/Third_Party/FreeRTOS/Source/timers.c **** 							pxTimer->ucStatus &= ~tmrSTATUS_IS_ACTIVE;
 1928              		.loc 1 859 26
 1929 0188 BB6A     		ldr	r3, [r7, #40]
 1930 018a 93F82830 		ldrb	r3, [r3, #40]	@ zero_extendqisi2
 1931 018e 23F00103 		bic	r3, r3, #1
 1932 0192 DAB2     		uxtb	r2, r3
 1933 0194 BB6A     		ldr	r3, [r7, #40]
 1934 0196 83F82820 		strb	r2, [r3, #40]
 860:Middlewares/Third_Party/FreeRTOS/Source/timers.c **** 						}
 861:Middlewares/Third_Party/FreeRTOS/Source/timers.c **** 					}
 862:Middlewares/Third_Party/FreeRTOS/Source/timers.c **** 					#else
 863:Middlewares/Third_Party/FreeRTOS/Source/timers.c **** 					{
 864:Middlewares/Third_Party/FreeRTOS/Source/timers.c **** 						/* If dynamic allocation is not enabled, the memory
 865:Middlewares/Third_Party/FreeRTOS/Source/timers.c **** 						could not have been dynamically allocated. So there is
 866:Middlewares/Third_Party/FreeRTOS/Source/timers.c **** 						no need to free the memory - just mark the timer as
 867:Middlewares/Third_Party/FreeRTOS/Source/timers.c **** 						"not active". */
 868:Middlewares/Third_Party/FreeRTOS/Source/timers.c **** 						pxTimer->ucStatus &= ~tmrSTATUS_IS_ACTIVE;
 869:Middlewares/Third_Party/FreeRTOS/Source/timers.c **** 					}
 870:Middlewares/Third_Party/FreeRTOS/Source/timers.c **** 					#endif /* configSUPPORT_DYNAMIC_ALLOCATION */
 871:Middlewares/Third_Party/FreeRTOS/Source/timers.c **** 					break;
 1935              		.loc 1 871 6
 1936 019a 00E0     		b	.L104
 1937              	.L122:
 872:Middlewares/Third_Party/FreeRTOS/Source/timers.c **** 
 873:Middlewares/Third_Party/FreeRTOS/Source/timers.c **** 				default	:
 874:Middlewares/Third_Party/FreeRTOS/Source/timers.c **** 					/* Don't expect to get here. */
 875:Middlewares/Third_Party/FreeRTOS/Source/timers.c **** 					break;
 1938              		.loc 1 875 6
 1939 019c 00BF     		nop
 1940              	.L104:
 741:Middlewares/Third_Party/FreeRTOS/Source/timers.c **** 	{
 1941              		.loc 1 741 9
 1942 019e 084B     		ldr	r3, .L123
 1943 01a0 1B68     		ldr	r3, [r3]
 1944 01a2 391D     		adds	r1, r7, #4
 1945 01a4 0022     		movs	r2, #0
 1946 01a6 1846     		mov	r0, r3
 1947 01a8 FFF7FEFF 		bl	xQueueReceive
 1948 01ac 0346     		mov	r3, r0
 741:Middlewares/Third_Party/FreeRTOS/Source/timers.c **** 	{
 1949              		.loc 1 741 62
 1950 01ae 002B     		cmp	r3, #0
 1951 01b0 7FF42AAF 		bne	.L121
 876:Middlewares/Third_Party/FreeRTOS/Source/timers.c **** 			}
 877:Middlewares/Third_Party/FreeRTOS/Source/timers.c **** 		}
 878:Middlewares/Third_Party/FreeRTOS/Source/timers.c **** 	}
ARM GAS  C:\Users\Bunyamin\AppData\Local\Temp\ccFW9f40.s 			page 54


 879:Middlewares/Third_Party/FreeRTOS/Source/timers.c **** }
 1952              		.loc 1 879 1
 1953 01b4 00BF     		nop
 1954 01b6 00BF     		nop
 1955 01b8 3037     		adds	r7, r7, #48
 1956              	.LCFI91:
 1957              		.cfi_def_cfa_offset 8
 1958 01ba BD46     		mov	sp, r7
 1959              	.LCFI92:
 1960              		.cfi_def_cfa_register 13
 1961              		@ sp needed
 1962 01bc 80BD     		pop	{r7, pc}
 1963              	.L124:
 1964 01be 00BF     		.align	2
 1965              	.L123:
 1966 01c0 00000000 		.word	xTimerQueue
 1967              		.cfi_endproc
 1968              	.LFE21:
 1970              		.section	.text.prvSwitchTimerLists,"ax",%progbits
 1971              		.align	1
 1972              		.syntax unified
 1973              		.thumb
 1974              		.thumb_func
 1976              	prvSwitchTimerLists:
 1977              	.LFB22:
 880:Middlewares/Third_Party/FreeRTOS/Source/timers.c **** /*-----------------------------------------------------------*/
 881:Middlewares/Third_Party/FreeRTOS/Source/timers.c **** 
 882:Middlewares/Third_Party/FreeRTOS/Source/timers.c **** static void prvSwitchTimerLists( void )
 883:Middlewares/Third_Party/FreeRTOS/Source/timers.c **** {
 1978              		.loc 1 883 1
 1979              		.cfi_startproc
 1980              		@ args = 0, pretend = 0, frame = 24
 1981              		@ frame_needed = 1, uses_anonymous_args = 0
 1982 0000 80B5     		push	{r7, lr}
 1983              	.LCFI93:
 1984              		.cfi_def_cfa_offset 8
 1985              		.cfi_offset 7, -8
 1986              		.cfi_offset 14, -4
 1987 0002 88B0     		sub	sp, sp, #32
 1988              	.LCFI94:
 1989              		.cfi_def_cfa_offset 40
 1990 0004 02AF     		add	r7, sp, #8
 1991              	.LCFI95:
 1992              		.cfi_def_cfa 7, 32
 884:Middlewares/Third_Party/FreeRTOS/Source/timers.c **** TickType_t xNextExpireTime, xReloadTime;
 885:Middlewares/Third_Party/FreeRTOS/Source/timers.c **** List_t *pxTemp;
 886:Middlewares/Third_Party/FreeRTOS/Source/timers.c **** Timer_t *pxTimer;
 887:Middlewares/Third_Party/FreeRTOS/Source/timers.c **** BaseType_t xResult;
 888:Middlewares/Third_Party/FreeRTOS/Source/timers.c **** 
 889:Middlewares/Third_Party/FreeRTOS/Source/timers.c **** 	/* The tick count has overflowed.  The timer lists must be switched.
 890:Middlewares/Third_Party/FreeRTOS/Source/timers.c **** 	If there are any timers still referenced from the current timer list
 891:Middlewares/Third_Party/FreeRTOS/Source/timers.c **** 	then they must have expired and should be processed before the lists
 892:Middlewares/Third_Party/FreeRTOS/Source/timers.c **** 	are switched. */
 893:Middlewares/Third_Party/FreeRTOS/Source/timers.c **** 	while( listLIST_IS_EMPTY( pxCurrentTimerList ) == pdFALSE )
 1993              		.loc 1 893 7
 1994 0006 48E0     		b	.L126
 1995              	.L129:
ARM GAS  C:\Users\Bunyamin\AppData\Local\Temp\ccFW9f40.s 			page 55


 894:Middlewares/Third_Party/FreeRTOS/Source/timers.c **** 	{
 895:Middlewares/Third_Party/FreeRTOS/Source/timers.c **** 		xNextExpireTime = listGET_ITEM_VALUE_OF_HEAD_ENTRY( pxCurrentTimerList );
 1996              		.loc 1 895 21
 1997 0008 2D4B     		ldr	r3, .L130
 1998 000a 1B68     		ldr	r3, [r3]
 1999 000c DB68     		ldr	r3, [r3, #12]
 2000              		.loc 1 895 19
 2001 000e 1B68     		ldr	r3, [r3]
 2002 0010 3B61     		str	r3, [r7, #16]
 896:Middlewares/Third_Party/FreeRTOS/Source/timers.c **** 
 897:Middlewares/Third_Party/FreeRTOS/Source/timers.c **** 		/* Remove the timer from the list. */
 898:Middlewares/Third_Party/FreeRTOS/Source/timers.c **** 		pxTimer = ( Timer_t * ) listGET_OWNER_OF_HEAD_ENTRY( pxCurrentTimerList ); /*lint !e9087 !e9079 v
 2003              		.loc 1 898 27
 2004 0012 2B4B     		ldr	r3, .L130
 2005 0014 1B68     		ldr	r3, [r3]
 2006 0016 DB68     		ldr	r3, [r3, #12]
 2007              		.loc 1 898 11
 2008 0018 DB68     		ldr	r3, [r3, #12]
 2009 001a FB60     		str	r3, [r7, #12]
 899:Middlewares/Third_Party/FreeRTOS/Source/timers.c **** 		( void ) uxListRemove( &( pxTimer->xTimerListItem ) );
 2010              		.loc 1 899 12
 2011 001c FB68     		ldr	r3, [r7, #12]
 2012 001e 0433     		adds	r3, r3, #4
 2013 0020 1846     		mov	r0, r3
 2014 0022 FFF7FEFF 		bl	uxListRemove
 900:Middlewares/Third_Party/FreeRTOS/Source/timers.c **** 		traceTIMER_EXPIRED( pxTimer );
 901:Middlewares/Third_Party/FreeRTOS/Source/timers.c **** 
 902:Middlewares/Third_Party/FreeRTOS/Source/timers.c **** 		/* Execute its callback, then send a command to restart the timer if
 903:Middlewares/Third_Party/FreeRTOS/Source/timers.c **** 		it is an auto-reload timer.  It cannot be restarted here as the lists
 904:Middlewares/Third_Party/FreeRTOS/Source/timers.c **** 		have not yet been switched. */
 905:Middlewares/Third_Party/FreeRTOS/Source/timers.c **** 		pxTimer->pxCallbackFunction( ( TimerHandle_t ) pxTimer );
 2015              		.loc 1 905 10
 2016 0026 FB68     		ldr	r3, [r7, #12]
 2017 0028 1B6A     		ldr	r3, [r3, #32]
 2018              		.loc 1 905 3
 2019 002a F868     		ldr	r0, [r7, #12]
 2020 002c 9847     		blx	r3
 2021              	.LVL3:
 906:Middlewares/Third_Party/FreeRTOS/Source/timers.c **** 
 907:Middlewares/Third_Party/FreeRTOS/Source/timers.c **** 		if( ( pxTimer->ucStatus & tmrSTATUS_IS_AUTORELOAD ) != 0 )
 2022              		.loc 1 907 16
 2023 002e FB68     		ldr	r3, [r7, #12]
 2024 0030 93F82830 		ldrb	r3, [r3, #40]	@ zero_extendqisi2
 2025              		.loc 1 907 27
 2026 0034 03F00403 		and	r3, r3, #4
 2027              		.loc 1 907 5
 2028 0038 002B     		cmp	r3, #0
 2029 003a 2ED0     		beq	.L126
 908:Middlewares/Third_Party/FreeRTOS/Source/timers.c **** 		{
 909:Middlewares/Third_Party/FreeRTOS/Source/timers.c **** 			/* Calculate the reload value, and if the reload value results in
 910:Middlewares/Third_Party/FreeRTOS/Source/timers.c **** 			the timer going into the same timer list then it has already expired
 911:Middlewares/Third_Party/FreeRTOS/Source/timers.c **** 			and the timer should be re-inserted into the current list so it is
 912:Middlewares/Third_Party/FreeRTOS/Source/timers.c **** 			processed again within this loop.  Otherwise a command should be sent
 913:Middlewares/Third_Party/FreeRTOS/Source/timers.c **** 			to restart the timer to ensure it is only inserted into a list after
 914:Middlewares/Third_Party/FreeRTOS/Source/timers.c **** 			the lists have been swapped. */
 915:Middlewares/Third_Party/FreeRTOS/Source/timers.c **** 			xReloadTime = ( xNextExpireTime + pxTimer->xTimerPeriodInTicks );
 2030              		.loc 1 915 45
ARM GAS  C:\Users\Bunyamin\AppData\Local\Temp\ccFW9f40.s 			page 56


 2031 003c FB68     		ldr	r3, [r7, #12]
 2032 003e 9B69     		ldr	r3, [r3, #24]
 2033              		.loc 1 915 16
 2034 0040 3A69     		ldr	r2, [r7, #16]
 2035 0042 1344     		add	r3, r3, r2
 2036 0044 BB60     		str	r3, [r7, #8]
 916:Middlewares/Third_Party/FreeRTOS/Source/timers.c **** 			if( xReloadTime > xNextExpireTime )
 2037              		.loc 1 916 6
 2038 0046 BA68     		ldr	r2, [r7, #8]
 2039 0048 3B69     		ldr	r3, [r7, #16]
 2040 004a 9A42     		cmp	r2, r3
 2041 004c 0ED9     		bls	.L127
 917:Middlewares/Third_Party/FreeRTOS/Source/timers.c **** 			{
 918:Middlewares/Third_Party/FreeRTOS/Source/timers.c **** 				listSET_LIST_ITEM_VALUE( &( pxTimer->xTimerListItem ), xReloadTime );
 2042              		.loc 1 918 5
 2043 004e FB68     		ldr	r3, [r7, #12]
 2044 0050 BA68     		ldr	r2, [r7, #8]
 2045 0052 5A60     		str	r2, [r3, #4]
 919:Middlewares/Third_Party/FreeRTOS/Source/timers.c **** 				listSET_LIST_ITEM_OWNER( &( pxTimer->xTimerListItem ), pxTimer );
 2046              		.loc 1 919 5
 2047 0054 FB68     		ldr	r3, [r7, #12]
 2048 0056 FA68     		ldr	r2, [r7, #12]
 2049 0058 1A61     		str	r2, [r3, #16]
 920:Middlewares/Third_Party/FreeRTOS/Source/timers.c **** 				vListInsert( pxCurrentTimerList, &( pxTimer->xTimerListItem ) );
 2050              		.loc 1 920 5
 2051 005a 194B     		ldr	r3, .L130
 2052 005c 1A68     		ldr	r2, [r3]
 2053 005e FB68     		ldr	r3, [r7, #12]
 2054 0060 0433     		adds	r3, r3, #4
 2055 0062 1946     		mov	r1, r3
 2056 0064 1046     		mov	r0, r2
 2057 0066 FFF7FEFF 		bl	vListInsert
 2058 006a 16E0     		b	.L126
 2059              	.L127:
 921:Middlewares/Third_Party/FreeRTOS/Source/timers.c **** 			}
 922:Middlewares/Third_Party/FreeRTOS/Source/timers.c **** 			else
 923:Middlewares/Third_Party/FreeRTOS/Source/timers.c **** 			{
 924:Middlewares/Third_Party/FreeRTOS/Source/timers.c **** 				xResult = xTimerGenericCommand( pxTimer, tmrCOMMAND_START_DONT_TRACE, xNextExpireTime, NULL, tm
 2060              		.loc 1 924 15
 2061 006c 0023     		movs	r3, #0
 2062 006e 0093     		str	r3, [sp]
 2063 0070 0023     		movs	r3, #0
 2064 0072 3A69     		ldr	r2, [r7, #16]
 2065 0074 0021     		movs	r1, #0
 2066 0076 F868     		ldr	r0, [r7, #12]
 2067 0078 FFF7FEFF 		bl	xTimerGenericCommand
 2068 007c 7860     		str	r0, [r7, #4]
 925:Middlewares/Third_Party/FreeRTOS/Source/timers.c **** 				configASSERT( xResult );
 2069              		.loc 1 925 5
 2070 007e 7B68     		ldr	r3, [r7, #4]
 2071 0080 002B     		cmp	r3, #0
 2072 0082 0AD1     		bne	.L126
 2073              	.LBB78:
 2074              	.LBB79:
 195:Middlewares/Third_Party/FreeRTOS/Source/portable/GCC/ARM_CM4F/portmacro.h **** 	(
 2075              		.loc 2 195 2
 2076              		.syntax unified
ARM GAS  C:\Users\Bunyamin\AppData\Local\Temp\ccFW9f40.s 			page 57


 2077              	@ 195 "Middlewares/Third_Party/FreeRTOS/Source/portable/GCC/ARM_CM4F/portmacro.h" 1
 2078 0084 4FF05003 			mov r3, #80												
 2079 0088 83F31188 		msr basepri, r3											
 2080 008c BFF36F8F 		isb														
 2081 0090 BFF34F8F 		dsb														
 2082              	
 2083              	@ 0 "" 2
 2084              		.thumb
 2085              		.syntax unified
 2086 0094 3B60     		str	r3, [r7]
 2087              		.loc 2 203 1
 2088 0096 00BF     		nop
 2089              	.L128:
 2090              	.LBE79:
 2091              	.LBE78:
 2092              		.loc 1 925 5 discriminator 1
 2093 0098 FEE7     		b	.L128
 2094              	.L126:
 893:Middlewares/Third_Party/FreeRTOS/Source/timers.c **** 	{
 2095              		.loc 1 893 9
 2096 009a 094B     		ldr	r3, .L130
 2097 009c 1B68     		ldr	r3, [r3]
 2098 009e 1B68     		ldr	r3, [r3]
 893:Middlewares/Third_Party/FreeRTOS/Source/timers.c **** 	{
 2099              		.loc 1 893 49
 2100 00a0 002B     		cmp	r3, #0
 2101 00a2 B1D1     		bne	.L129
 926:Middlewares/Third_Party/FreeRTOS/Source/timers.c **** 				( void ) xResult;
 927:Middlewares/Third_Party/FreeRTOS/Source/timers.c **** 			}
 928:Middlewares/Third_Party/FreeRTOS/Source/timers.c **** 		}
 929:Middlewares/Third_Party/FreeRTOS/Source/timers.c **** 		else
 930:Middlewares/Third_Party/FreeRTOS/Source/timers.c **** 		{
 931:Middlewares/Third_Party/FreeRTOS/Source/timers.c **** 			mtCOVERAGE_TEST_MARKER();
 932:Middlewares/Third_Party/FreeRTOS/Source/timers.c **** 		}
 933:Middlewares/Third_Party/FreeRTOS/Source/timers.c **** 	}
 934:Middlewares/Third_Party/FreeRTOS/Source/timers.c **** 
 935:Middlewares/Third_Party/FreeRTOS/Source/timers.c **** 	pxTemp = pxCurrentTimerList;
 2102              		.loc 1 935 9
 2103 00a4 064B     		ldr	r3, .L130
 2104 00a6 1B68     		ldr	r3, [r3]
 2105 00a8 7B61     		str	r3, [r7, #20]
 936:Middlewares/Third_Party/FreeRTOS/Source/timers.c **** 	pxCurrentTimerList = pxOverflowTimerList;
 2106              		.loc 1 936 21
 2107 00aa 064B     		ldr	r3, .L130+4
 2108 00ac 1B68     		ldr	r3, [r3]
 2109 00ae 044A     		ldr	r2, .L130
 2110 00b0 1360     		str	r3, [r2]
 937:Middlewares/Third_Party/FreeRTOS/Source/timers.c **** 	pxOverflowTimerList = pxTemp;
 2111              		.loc 1 937 22
 2112 00b2 044A     		ldr	r2, .L130+4
 2113 00b4 7B69     		ldr	r3, [r7, #20]
 2114 00b6 1360     		str	r3, [r2]
 938:Middlewares/Third_Party/FreeRTOS/Source/timers.c **** }
 2115              		.loc 1 938 1
 2116 00b8 00BF     		nop
 2117 00ba 1837     		adds	r7, r7, #24
 2118              	.LCFI96:
ARM GAS  C:\Users\Bunyamin\AppData\Local\Temp\ccFW9f40.s 			page 58


 2119              		.cfi_def_cfa_offset 8
 2120 00bc BD46     		mov	sp, r7
 2121              	.LCFI97:
 2122              		.cfi_def_cfa_register 13
 2123              		@ sp needed
 2124 00be 80BD     		pop	{r7, pc}
 2125              	.L131:
 2126              		.align	2
 2127              	.L130:
 2128 00c0 00000000 		.word	pxCurrentTimerList
 2129 00c4 00000000 		.word	pxOverflowTimerList
 2130              		.cfi_endproc
 2131              	.LFE22:
 2133              		.section	.rodata
 2134              		.align	2
 2135              	.LC1:
 2136 0008 546D7251 		.ascii	"TmrQ\000"
 2136      00
 2137              		.section	.text.prvCheckForValidListAndQueue,"ax",%progbits
 2138              		.align	1
 2139              		.syntax unified
 2140              		.thumb
 2141              		.thumb_func
 2143              	prvCheckForValidListAndQueue:
 2144              	.LFB23:
 939:Middlewares/Third_Party/FreeRTOS/Source/timers.c **** /*-----------------------------------------------------------*/
 940:Middlewares/Third_Party/FreeRTOS/Source/timers.c **** 
 941:Middlewares/Third_Party/FreeRTOS/Source/timers.c **** static void prvCheckForValidListAndQueue( void )
 942:Middlewares/Third_Party/FreeRTOS/Source/timers.c **** {
 2145              		.loc 1 942 1
 2146              		.cfi_startproc
 2147              		@ args = 0, pretend = 0, frame = 0
 2148              		@ frame_needed = 1, uses_anonymous_args = 0
 2149 0000 80B5     		push	{r7, lr}
 2150              	.LCFI98:
 2151              		.cfi_def_cfa_offset 8
 2152              		.cfi_offset 7, -8
 2153              		.cfi_offset 14, -4
 2154 0002 82B0     		sub	sp, sp, #8
 2155              	.LCFI99:
 2156              		.cfi_def_cfa_offset 16
 2157 0004 02AF     		add	r7, sp, #8
 2158              	.LCFI100:
 2159              		.cfi_def_cfa 7, 8
 943:Middlewares/Third_Party/FreeRTOS/Source/timers.c **** 	/* Check that the list from which active timers are referenced, and the
 944:Middlewares/Third_Party/FreeRTOS/Source/timers.c **** 	queue used to communicate with the timer service, have been
 945:Middlewares/Third_Party/FreeRTOS/Source/timers.c **** 	initialised. */
 946:Middlewares/Third_Party/FreeRTOS/Source/timers.c **** 	taskENTER_CRITICAL();
 2160              		.loc 1 946 2
 2161 0006 FFF7FEFF 		bl	vPortEnterCritical
 947:Middlewares/Third_Party/FreeRTOS/Source/timers.c **** 	{
 948:Middlewares/Third_Party/FreeRTOS/Source/timers.c **** 		if( xTimerQueue == NULL )
 2162              		.loc 1 948 19
 2163 000a 154B     		ldr	r3, .L134
 2164 000c 1B68     		ldr	r3, [r3]
 2165              		.loc 1 948 5
 2166 000e 002B     		cmp	r3, #0
ARM GAS  C:\Users\Bunyamin\AppData\Local\Temp\ccFW9f40.s 			page 59


 2167 0010 20D1     		bne	.L133
 949:Middlewares/Third_Party/FreeRTOS/Source/timers.c **** 		{
 950:Middlewares/Third_Party/FreeRTOS/Source/timers.c **** 			vListInitialise( &xActiveTimerList1 );
 2168              		.loc 1 950 4
 2169 0012 1448     		ldr	r0, .L134+4
 2170 0014 FFF7FEFF 		bl	vListInitialise
 951:Middlewares/Third_Party/FreeRTOS/Source/timers.c **** 			vListInitialise( &xActiveTimerList2 );
 2171              		.loc 1 951 4
 2172 0018 1348     		ldr	r0, .L134+8
 2173 001a FFF7FEFF 		bl	vListInitialise
 952:Middlewares/Third_Party/FreeRTOS/Source/timers.c **** 			pxCurrentTimerList = &xActiveTimerList1;
 2174              		.loc 1 952 23
 2175 001e 134B     		ldr	r3, .L134+12
 2176 0020 104A     		ldr	r2, .L134+4
 2177 0022 1A60     		str	r2, [r3]
 953:Middlewares/Third_Party/FreeRTOS/Source/timers.c **** 			pxOverflowTimerList = &xActiveTimerList2;
 2178              		.loc 1 953 24
 2179 0024 124B     		ldr	r3, .L134+16
 2180 0026 104A     		ldr	r2, .L134+8
 2181 0028 1A60     		str	r2, [r3]
 2182              	.LBB80:
 954:Middlewares/Third_Party/FreeRTOS/Source/timers.c **** 
 955:Middlewares/Third_Party/FreeRTOS/Source/timers.c **** 			#if( configSUPPORT_STATIC_ALLOCATION == 1 )
 956:Middlewares/Third_Party/FreeRTOS/Source/timers.c **** 			{
 957:Middlewares/Third_Party/FreeRTOS/Source/timers.c **** 				/* The timer queue is allocated statically in case
 958:Middlewares/Third_Party/FreeRTOS/Source/timers.c **** 				configSUPPORT_DYNAMIC_ALLOCATION is 0. */
 959:Middlewares/Third_Party/FreeRTOS/Source/timers.c **** 				static StaticQueue_t xStaticTimerQueue; /*lint !e956 Ok to declare in this manner to prevent ad
 960:Middlewares/Third_Party/FreeRTOS/Source/timers.c **** 				static uint8_t ucStaticTimerQueueStorage[ ( size_t ) configTIMER_QUEUE_LENGTH * sizeof( DaemonT
 961:Middlewares/Third_Party/FreeRTOS/Source/timers.c **** 
 962:Middlewares/Third_Party/FreeRTOS/Source/timers.c **** 				xTimerQueue = xQueueCreateStatic( ( UBaseType_t ) configTIMER_QUEUE_LENGTH, ( UBaseType_t ) siz
 2183              		.loc 1 962 19
 2184 002a 0023     		movs	r3, #0
 2185 002c 0093     		str	r3, [sp]
 2186 002e 114B     		ldr	r3, .L134+20
 2187 0030 114A     		ldr	r2, .L134+24
 2188 0032 1021     		movs	r1, #16
 2189 0034 0A20     		movs	r0, #10
 2190 0036 FFF7FEFF 		bl	xQueueGenericCreateStatic
 2191 003a 0346     		mov	r3, r0
 2192              		.loc 1 962 17
 2193 003c 084A     		ldr	r2, .L134
 2194 003e 1360     		str	r3, [r2]
 2195              	.LBE80:
 963:Middlewares/Third_Party/FreeRTOS/Source/timers.c **** 			}
 964:Middlewares/Third_Party/FreeRTOS/Source/timers.c **** 			#else
 965:Middlewares/Third_Party/FreeRTOS/Source/timers.c **** 			{
 966:Middlewares/Third_Party/FreeRTOS/Source/timers.c **** 				xTimerQueue = xQueueCreate( ( UBaseType_t ) configTIMER_QUEUE_LENGTH, sizeof( DaemonTaskMessage
 967:Middlewares/Third_Party/FreeRTOS/Source/timers.c **** 			}
 968:Middlewares/Third_Party/FreeRTOS/Source/timers.c **** 			#endif
 969:Middlewares/Third_Party/FreeRTOS/Source/timers.c **** 
 970:Middlewares/Third_Party/FreeRTOS/Source/timers.c **** 			#if ( configQUEUE_REGISTRY_SIZE > 0 )
 971:Middlewares/Third_Party/FreeRTOS/Source/timers.c **** 			{
 972:Middlewares/Third_Party/FreeRTOS/Source/timers.c **** 				if( xTimerQueue != NULL )
 2196              		.loc 1 972 21
 2197 0040 074B     		ldr	r3, .L134
 2198 0042 1B68     		ldr	r3, [r3]
 2199              		.loc 1 972 7
ARM GAS  C:\Users\Bunyamin\AppData\Local\Temp\ccFW9f40.s 			page 60


 2200 0044 002B     		cmp	r3, #0
 2201 0046 05D0     		beq	.L133
 973:Middlewares/Third_Party/FreeRTOS/Source/timers.c **** 				{
 974:Middlewares/Third_Party/FreeRTOS/Source/timers.c **** 					vQueueAddToRegistry( xTimerQueue, "TmrQ" );
 2202              		.loc 1 974 6
 2203 0048 054B     		ldr	r3, .L134
 2204 004a 1B68     		ldr	r3, [r3]
 2205 004c 0B49     		ldr	r1, .L134+28
 2206 004e 1846     		mov	r0, r3
 2207 0050 FFF7FEFF 		bl	vQueueAddToRegistry
 2208              	.L133:
 975:Middlewares/Third_Party/FreeRTOS/Source/timers.c **** 				}
 976:Middlewares/Third_Party/FreeRTOS/Source/timers.c **** 				else
 977:Middlewares/Third_Party/FreeRTOS/Source/timers.c **** 				{
 978:Middlewares/Third_Party/FreeRTOS/Source/timers.c **** 					mtCOVERAGE_TEST_MARKER();
 979:Middlewares/Third_Party/FreeRTOS/Source/timers.c **** 				}
 980:Middlewares/Third_Party/FreeRTOS/Source/timers.c **** 			}
 981:Middlewares/Third_Party/FreeRTOS/Source/timers.c **** 			#endif /* configQUEUE_REGISTRY_SIZE */
 982:Middlewares/Third_Party/FreeRTOS/Source/timers.c **** 		}
 983:Middlewares/Third_Party/FreeRTOS/Source/timers.c **** 		else
 984:Middlewares/Third_Party/FreeRTOS/Source/timers.c **** 		{
 985:Middlewares/Third_Party/FreeRTOS/Source/timers.c **** 			mtCOVERAGE_TEST_MARKER();
 986:Middlewares/Third_Party/FreeRTOS/Source/timers.c **** 		}
 987:Middlewares/Third_Party/FreeRTOS/Source/timers.c **** 	}
 988:Middlewares/Third_Party/FreeRTOS/Source/timers.c **** 	taskEXIT_CRITICAL();
 2209              		.loc 1 988 2
 2210 0054 FFF7FEFF 		bl	vPortExitCritical
 989:Middlewares/Third_Party/FreeRTOS/Source/timers.c **** }
 2211              		.loc 1 989 1
 2212 0058 00BF     		nop
 2213 005a BD46     		mov	sp, r7
 2214              	.LCFI101:
 2215              		.cfi_def_cfa_register 13
 2216              		@ sp needed
 2217 005c 80BD     		pop	{r7, pc}
 2218              	.L135:
 2219 005e 00BF     		.align	2
 2220              	.L134:
 2221 0060 00000000 		.word	xTimerQueue
 2222 0064 00000000 		.word	xActiveTimerList1
 2223 0068 00000000 		.word	xActiveTimerList2
 2224 006c 00000000 		.word	pxCurrentTimerList
 2225 0070 00000000 		.word	pxOverflowTimerList
 2226 0074 00000000 		.word	xStaticTimerQueue.0
 2227 0078 00000000 		.word	ucStaticTimerQueueStorage.1
 2228 007c 08000000 		.word	.LC1
 2229              		.cfi_endproc
 2230              	.LFE23:
 2232              		.section	.text.xTimerIsTimerActive,"ax",%progbits
 2233              		.align	1
 2234              		.global	xTimerIsTimerActive
 2235              		.syntax unified
 2236              		.thumb
 2237              		.thumb_func
 2239              	xTimerIsTimerActive:
 2240              	.LFB24:
 990:Middlewares/Third_Party/FreeRTOS/Source/timers.c **** /*-----------------------------------------------------------*/
ARM GAS  C:\Users\Bunyamin\AppData\Local\Temp\ccFW9f40.s 			page 61


 991:Middlewares/Third_Party/FreeRTOS/Source/timers.c **** 
 992:Middlewares/Third_Party/FreeRTOS/Source/timers.c **** BaseType_t xTimerIsTimerActive( TimerHandle_t xTimer )
 993:Middlewares/Third_Party/FreeRTOS/Source/timers.c **** {
 2241              		.loc 1 993 1
 2242              		.cfi_startproc
 2243              		@ args = 0, pretend = 0, frame = 24
 2244              		@ frame_needed = 1, uses_anonymous_args = 0
 2245 0000 80B5     		push	{r7, lr}
 2246              	.LCFI102:
 2247              		.cfi_def_cfa_offset 8
 2248              		.cfi_offset 7, -8
 2249              		.cfi_offset 14, -4
 2250 0002 86B0     		sub	sp, sp, #24
 2251              	.LCFI103:
 2252              		.cfi_def_cfa_offset 32
 2253 0004 00AF     		add	r7, sp, #0
 2254              	.LCFI104:
 2255              		.cfi_def_cfa_register 7
 2256 0006 7860     		str	r0, [r7, #4]
 994:Middlewares/Third_Party/FreeRTOS/Source/timers.c **** BaseType_t xReturn;
 995:Middlewares/Third_Party/FreeRTOS/Source/timers.c **** Timer_t *pxTimer = xTimer;
 2257              		.loc 1 995 10
 2258 0008 7B68     		ldr	r3, [r7, #4]
 2259 000a 3B61     		str	r3, [r7, #16]
 996:Middlewares/Third_Party/FreeRTOS/Source/timers.c **** 
 997:Middlewares/Third_Party/FreeRTOS/Source/timers.c **** 	configASSERT( xTimer );
 2260              		.loc 1 997 2
 2261 000c 7B68     		ldr	r3, [r7, #4]
 2262 000e 002B     		cmp	r3, #0
 2263 0010 0AD1     		bne	.L137
 2264              	.LBB81:
 2265              	.LBB82:
 195:Middlewares/Third_Party/FreeRTOS/Source/portable/GCC/ARM_CM4F/portmacro.h **** 	(
 2266              		.loc 2 195 2
 2267              		.syntax unified
 2268              	@ 195 "Middlewares/Third_Party/FreeRTOS/Source/portable/GCC/ARM_CM4F/portmacro.h" 1
 2269 0012 4FF05003 			mov r3, #80												
 2270 0016 83F31188 		msr basepri, r3											
 2271 001a BFF36F8F 		isb														
 2272 001e BFF34F8F 		dsb														
 2273              	
 2274              	@ 0 "" 2
 2275              		.thumb
 2276              		.syntax unified
 2277 0022 FB60     		str	r3, [r7, #12]
 2278              		.loc 2 203 1
 2279 0024 00BF     		nop
 2280              	.L138:
 2281              	.LBE82:
 2282              	.LBE81:
 2283              		.loc 1 997 2 discriminator 1
 2284 0026 FEE7     		b	.L138
 2285              	.L137:
 998:Middlewares/Third_Party/FreeRTOS/Source/timers.c **** 
 999:Middlewares/Third_Party/FreeRTOS/Source/timers.c **** 	/* Is the timer in the list of active timers? */
1000:Middlewares/Third_Party/FreeRTOS/Source/timers.c **** 	taskENTER_CRITICAL();
 2286              		.loc 1 1000 2
ARM GAS  C:\Users\Bunyamin\AppData\Local\Temp\ccFW9f40.s 			page 62


 2287 0028 FFF7FEFF 		bl	vPortEnterCritical
1001:Middlewares/Third_Party/FreeRTOS/Source/timers.c **** 	{
1002:Middlewares/Third_Party/FreeRTOS/Source/timers.c **** 		if( ( pxTimer->ucStatus & tmrSTATUS_IS_ACTIVE ) == 0 )
 2288              		.loc 1 1002 16
 2289 002c 3B69     		ldr	r3, [r7, #16]
 2290 002e 93F82830 		ldrb	r3, [r3, #40]	@ zero_extendqisi2
 2291              		.loc 1 1002 27
 2292 0032 03F00103 		and	r3, r3, #1
 2293              		.loc 1 1002 5
 2294 0036 002B     		cmp	r3, #0
 2295 0038 02D1     		bne	.L139
1003:Middlewares/Third_Party/FreeRTOS/Source/timers.c **** 		{
1004:Middlewares/Third_Party/FreeRTOS/Source/timers.c **** 			xReturn = pdFALSE;
 2296              		.loc 1 1004 12
 2297 003a 0023     		movs	r3, #0
 2298 003c 7B61     		str	r3, [r7, #20]
 2299 003e 01E0     		b	.L140
 2300              	.L139:
1005:Middlewares/Third_Party/FreeRTOS/Source/timers.c **** 		}
1006:Middlewares/Third_Party/FreeRTOS/Source/timers.c **** 		else
1007:Middlewares/Third_Party/FreeRTOS/Source/timers.c **** 		{
1008:Middlewares/Third_Party/FreeRTOS/Source/timers.c **** 			xReturn = pdTRUE;
 2301              		.loc 1 1008 12
 2302 0040 0123     		movs	r3, #1
 2303 0042 7B61     		str	r3, [r7, #20]
 2304              	.L140:
1009:Middlewares/Third_Party/FreeRTOS/Source/timers.c **** 		}
1010:Middlewares/Third_Party/FreeRTOS/Source/timers.c **** 	}
1011:Middlewares/Third_Party/FreeRTOS/Source/timers.c **** 	taskEXIT_CRITICAL();
 2305              		.loc 1 1011 2
 2306 0044 FFF7FEFF 		bl	vPortExitCritical
1012:Middlewares/Third_Party/FreeRTOS/Source/timers.c **** 
1013:Middlewares/Third_Party/FreeRTOS/Source/timers.c **** 	return xReturn;
 2307              		.loc 1 1013 9
 2308 0048 7B69     		ldr	r3, [r7, #20]
1014:Middlewares/Third_Party/FreeRTOS/Source/timers.c **** } /*lint !e818 Can't be pointer to const due to the typedef. */
 2309              		.loc 1 1014 1
 2310 004a 1846     		mov	r0, r3
 2311 004c 1837     		adds	r7, r7, #24
 2312              	.LCFI105:
 2313              		.cfi_def_cfa_offset 8
 2314 004e BD46     		mov	sp, r7
 2315              	.LCFI106:
 2316              		.cfi_def_cfa_register 13
 2317              		@ sp needed
 2318 0050 80BD     		pop	{r7, pc}
 2319              		.cfi_endproc
 2320              	.LFE24:
 2322              		.section	.text.pvTimerGetTimerID,"ax",%progbits
 2323              		.align	1
 2324              		.global	pvTimerGetTimerID
 2325              		.syntax unified
 2326              		.thumb
 2327              		.thumb_func
 2329              	pvTimerGetTimerID:
 2330              	.LFB25:
1015:Middlewares/Third_Party/FreeRTOS/Source/timers.c **** /*-----------------------------------------------------------*/
ARM GAS  C:\Users\Bunyamin\AppData\Local\Temp\ccFW9f40.s 			page 63


1016:Middlewares/Third_Party/FreeRTOS/Source/timers.c **** 
1017:Middlewares/Third_Party/FreeRTOS/Source/timers.c **** void *pvTimerGetTimerID( const TimerHandle_t xTimer )
1018:Middlewares/Third_Party/FreeRTOS/Source/timers.c **** {
 2331              		.loc 1 1018 1
 2332              		.cfi_startproc
 2333              		@ args = 0, pretend = 0, frame = 24
 2334              		@ frame_needed = 1, uses_anonymous_args = 0
 2335 0000 80B5     		push	{r7, lr}
 2336              	.LCFI107:
 2337              		.cfi_def_cfa_offset 8
 2338              		.cfi_offset 7, -8
 2339              		.cfi_offset 14, -4
 2340 0002 86B0     		sub	sp, sp, #24
 2341              	.LCFI108:
 2342              		.cfi_def_cfa_offset 32
 2343 0004 00AF     		add	r7, sp, #0
 2344              	.LCFI109:
 2345              		.cfi_def_cfa_register 7
 2346 0006 7860     		str	r0, [r7, #4]
1019:Middlewares/Third_Party/FreeRTOS/Source/timers.c **** Timer_t * const pxTimer = xTimer;
 2347              		.loc 1 1019 17
 2348 0008 7B68     		ldr	r3, [r7, #4]
 2349 000a 7B61     		str	r3, [r7, #20]
1020:Middlewares/Third_Party/FreeRTOS/Source/timers.c **** void *pvReturn;
1021:Middlewares/Third_Party/FreeRTOS/Source/timers.c **** 
1022:Middlewares/Third_Party/FreeRTOS/Source/timers.c **** 	configASSERT( xTimer );
 2350              		.loc 1 1022 2
 2351 000c 7B68     		ldr	r3, [r7, #4]
 2352 000e 002B     		cmp	r3, #0
 2353 0010 0AD1     		bne	.L143
 2354              	.LBB83:
 2355              	.LBB84:
 195:Middlewares/Third_Party/FreeRTOS/Source/portable/GCC/ARM_CM4F/portmacro.h **** 	(
 2356              		.loc 2 195 2
 2357              		.syntax unified
 2358              	@ 195 "Middlewares/Third_Party/FreeRTOS/Source/portable/GCC/ARM_CM4F/portmacro.h" 1
 2359 0012 4FF05003 			mov r3, #80												
 2360 0016 83F31188 		msr basepri, r3											
 2361 001a BFF36F8F 		isb														
 2362 001e BFF34F8F 		dsb														
 2363              	
 2364              	@ 0 "" 2
 2365              		.thumb
 2366              		.syntax unified
 2367 0022 FB60     		str	r3, [r7, #12]
 2368              		.loc 2 203 1
 2369 0024 00BF     		nop
 2370              	.L144:
 2371              	.LBE84:
 2372              	.LBE83:
 2373              		.loc 1 1022 2 discriminator 1
 2374 0026 FEE7     		b	.L144
 2375              	.L143:
1023:Middlewares/Third_Party/FreeRTOS/Source/timers.c **** 
1024:Middlewares/Third_Party/FreeRTOS/Source/timers.c **** 	taskENTER_CRITICAL();
 2376              		.loc 1 1024 2
 2377 0028 FFF7FEFF 		bl	vPortEnterCritical
ARM GAS  C:\Users\Bunyamin\AppData\Local\Temp\ccFW9f40.s 			page 64


1025:Middlewares/Third_Party/FreeRTOS/Source/timers.c **** 	{
1026:Middlewares/Third_Party/FreeRTOS/Source/timers.c **** 		pvReturn = pxTimer->pvTimerID;
 2378              		.loc 1 1026 12
 2379 002c 7B69     		ldr	r3, [r7, #20]
 2380 002e DB69     		ldr	r3, [r3, #28]
 2381 0030 3B61     		str	r3, [r7, #16]
1027:Middlewares/Third_Party/FreeRTOS/Source/timers.c **** 	}
1028:Middlewares/Third_Party/FreeRTOS/Source/timers.c **** 	taskEXIT_CRITICAL();
 2382              		.loc 1 1028 2
 2383 0032 FFF7FEFF 		bl	vPortExitCritical
1029:Middlewares/Third_Party/FreeRTOS/Source/timers.c **** 
1030:Middlewares/Third_Party/FreeRTOS/Source/timers.c **** 	return pvReturn;
 2384              		.loc 1 1030 9
 2385 0036 3B69     		ldr	r3, [r7, #16]
1031:Middlewares/Third_Party/FreeRTOS/Source/timers.c **** }
 2386              		.loc 1 1031 1
 2387 0038 1846     		mov	r0, r3
 2388 003a 1837     		adds	r7, r7, #24
 2389              	.LCFI110:
 2390              		.cfi_def_cfa_offset 8
 2391 003c BD46     		mov	sp, r7
 2392              	.LCFI111:
 2393              		.cfi_def_cfa_register 13
 2394              		@ sp needed
 2395 003e 80BD     		pop	{r7, pc}
 2396              		.cfi_endproc
 2397              	.LFE25:
 2399              		.section	.text.vTimerSetTimerID,"ax",%progbits
 2400              		.align	1
 2401              		.global	vTimerSetTimerID
 2402              		.syntax unified
 2403              		.thumb
 2404              		.thumb_func
 2406              	vTimerSetTimerID:
 2407              	.LFB26:
1032:Middlewares/Third_Party/FreeRTOS/Source/timers.c **** /*-----------------------------------------------------------*/
1033:Middlewares/Third_Party/FreeRTOS/Source/timers.c **** 
1034:Middlewares/Third_Party/FreeRTOS/Source/timers.c **** void vTimerSetTimerID( TimerHandle_t xTimer, void *pvNewID )
1035:Middlewares/Third_Party/FreeRTOS/Source/timers.c **** {
 2408              		.loc 1 1035 1
 2409              		.cfi_startproc
 2410              		@ args = 0, pretend = 0, frame = 16
 2411              		@ frame_needed = 1, uses_anonymous_args = 0
 2412 0000 80B5     		push	{r7, lr}
 2413              	.LCFI112:
 2414              		.cfi_def_cfa_offset 8
 2415              		.cfi_offset 7, -8
 2416              		.cfi_offset 14, -4
 2417 0002 84B0     		sub	sp, sp, #16
 2418              	.LCFI113:
 2419              		.cfi_def_cfa_offset 24
 2420 0004 00AF     		add	r7, sp, #0
 2421              	.LCFI114:
 2422              		.cfi_def_cfa_register 7
 2423 0006 7860     		str	r0, [r7, #4]
 2424 0008 3960     		str	r1, [r7]
1036:Middlewares/Third_Party/FreeRTOS/Source/timers.c **** Timer_t * const pxTimer = xTimer;
ARM GAS  C:\Users\Bunyamin\AppData\Local\Temp\ccFW9f40.s 			page 65


 2425              		.loc 1 1036 17
 2426 000a 7B68     		ldr	r3, [r7, #4]
 2427 000c FB60     		str	r3, [r7, #12]
1037:Middlewares/Third_Party/FreeRTOS/Source/timers.c **** 
1038:Middlewares/Third_Party/FreeRTOS/Source/timers.c **** 	configASSERT( xTimer );
 2428              		.loc 1 1038 2
 2429 000e 7B68     		ldr	r3, [r7, #4]
 2430 0010 002B     		cmp	r3, #0
 2431 0012 0AD1     		bne	.L147
 2432              	.LBB85:
 2433              	.LBB86:
 195:Middlewares/Third_Party/FreeRTOS/Source/portable/GCC/ARM_CM4F/portmacro.h **** 	(
 2434              		.loc 2 195 2
 2435              		.syntax unified
 2436              	@ 195 "Middlewares/Third_Party/FreeRTOS/Source/portable/GCC/ARM_CM4F/portmacro.h" 1
 2437 0014 4FF05003 			mov r3, #80												
 2438 0018 83F31188 		msr basepri, r3											
 2439 001c BFF36F8F 		isb														
 2440 0020 BFF34F8F 		dsb														
 2441              	
 2442              	@ 0 "" 2
 2443              		.thumb
 2444              		.syntax unified
 2445 0024 BB60     		str	r3, [r7, #8]
 2446              		.loc 2 203 1
 2447 0026 00BF     		nop
 2448              	.L148:
 2449              	.LBE86:
 2450              	.LBE85:
 2451              		.loc 1 1038 2 discriminator 1
 2452 0028 FEE7     		b	.L148
 2453              	.L147:
1039:Middlewares/Third_Party/FreeRTOS/Source/timers.c **** 
1040:Middlewares/Third_Party/FreeRTOS/Source/timers.c **** 	taskENTER_CRITICAL();
 2454              		.loc 1 1040 2
 2455 002a FFF7FEFF 		bl	vPortEnterCritical
1041:Middlewares/Third_Party/FreeRTOS/Source/timers.c **** 	{
1042:Middlewares/Third_Party/FreeRTOS/Source/timers.c **** 		pxTimer->pvTimerID = pvNewID;
 2456              		.loc 1 1042 22
 2457 002e FB68     		ldr	r3, [r7, #12]
 2458 0030 3A68     		ldr	r2, [r7]
 2459 0032 DA61     		str	r2, [r3, #28]
1043:Middlewares/Third_Party/FreeRTOS/Source/timers.c **** 	}
1044:Middlewares/Third_Party/FreeRTOS/Source/timers.c **** 	taskEXIT_CRITICAL();
 2460              		.loc 1 1044 2
 2461 0034 FFF7FEFF 		bl	vPortExitCritical
1045:Middlewares/Third_Party/FreeRTOS/Source/timers.c **** }
 2462              		.loc 1 1045 1
 2463 0038 00BF     		nop
 2464 003a 1037     		adds	r7, r7, #16
 2465              	.LCFI115:
 2466              		.cfi_def_cfa_offset 8
 2467 003c BD46     		mov	sp, r7
 2468              	.LCFI116:
 2469              		.cfi_def_cfa_register 13
 2470              		@ sp needed
 2471 003e 80BD     		pop	{r7, pc}
ARM GAS  C:\Users\Bunyamin\AppData\Local\Temp\ccFW9f40.s 			page 66


 2472              		.cfi_endproc
 2473              	.LFE26:
 2475              		.section	.text.xTimerPendFunctionCallFromISR,"ax",%progbits
 2476              		.align	1
 2477              		.global	xTimerPendFunctionCallFromISR
 2478              		.syntax unified
 2479              		.thumb
 2480              		.thumb_func
 2482              	xTimerPendFunctionCallFromISR:
 2483              	.LFB27:
1046:Middlewares/Third_Party/FreeRTOS/Source/timers.c **** /*-----------------------------------------------------------*/
1047:Middlewares/Third_Party/FreeRTOS/Source/timers.c **** 
1048:Middlewares/Third_Party/FreeRTOS/Source/timers.c **** #if( INCLUDE_xTimerPendFunctionCall == 1 )
1049:Middlewares/Third_Party/FreeRTOS/Source/timers.c **** 
1050:Middlewares/Third_Party/FreeRTOS/Source/timers.c **** 	BaseType_t xTimerPendFunctionCallFromISR( PendedFunction_t xFunctionToPend, void *pvParameter1, ui
1051:Middlewares/Third_Party/FreeRTOS/Source/timers.c **** 	{
 2484              		.loc 1 1051 2
 2485              		.cfi_startproc
 2486              		@ args = 0, pretend = 0, frame = 40
 2487              		@ frame_needed = 1, uses_anonymous_args = 0
 2488 0000 80B5     		push	{r7, lr}
 2489              	.LCFI117:
 2490              		.cfi_def_cfa_offset 8
 2491              		.cfi_offset 7, -8
 2492              		.cfi_offset 14, -4
 2493 0002 8AB0     		sub	sp, sp, #40
 2494              	.LCFI118:
 2495              		.cfi_def_cfa_offset 48
 2496 0004 00AF     		add	r7, sp, #0
 2497              	.LCFI119:
 2498              		.cfi_def_cfa_register 7
 2499 0006 F860     		str	r0, [r7, #12]
 2500 0008 B960     		str	r1, [r7, #8]
 2501 000a 7A60     		str	r2, [r7, #4]
 2502 000c 3B60     		str	r3, [r7]
1052:Middlewares/Third_Party/FreeRTOS/Source/timers.c **** 	DaemonTaskMessage_t xMessage;
1053:Middlewares/Third_Party/FreeRTOS/Source/timers.c **** 	BaseType_t xReturn;
1054:Middlewares/Third_Party/FreeRTOS/Source/timers.c **** 
1055:Middlewares/Third_Party/FreeRTOS/Source/timers.c **** 		/* Complete the message with the function parameters and post it to the
1056:Middlewares/Third_Party/FreeRTOS/Source/timers.c **** 		daemon task. */
1057:Middlewares/Third_Party/FreeRTOS/Source/timers.c **** 		xMessage.xMessageID = tmrCOMMAND_EXECUTE_CALLBACK_FROM_ISR;
 2503              		.loc 1 1057 23
 2504 000e 6FF00103 		mvn	r3, #1
 2505 0012 7B61     		str	r3, [r7, #20]
1058:Middlewares/Third_Party/FreeRTOS/Source/timers.c **** 		xMessage.u.xCallbackParameters.pxCallbackFunction = xFunctionToPend;
 2506              		.loc 1 1058 53
 2507 0014 FB68     		ldr	r3, [r7, #12]
 2508 0016 BB61     		str	r3, [r7, #24]
1059:Middlewares/Third_Party/FreeRTOS/Source/timers.c **** 		xMessage.u.xCallbackParameters.pvParameter1 = pvParameter1;
 2509              		.loc 1 1059 47
 2510 0018 BB68     		ldr	r3, [r7, #8]
 2511 001a FB61     		str	r3, [r7, #28]
1060:Middlewares/Third_Party/FreeRTOS/Source/timers.c **** 		xMessage.u.xCallbackParameters.ulParameter2 = ulParameter2;
 2512              		.loc 1 1060 47
 2513 001c 7B68     		ldr	r3, [r7, #4]
 2514 001e 3B62     		str	r3, [r7, #32]
1061:Middlewares/Third_Party/FreeRTOS/Source/timers.c **** 
ARM GAS  C:\Users\Bunyamin\AppData\Local\Temp\ccFW9f40.s 			page 67


1062:Middlewares/Third_Party/FreeRTOS/Source/timers.c **** 		xReturn = xQueueSendFromISR( xTimerQueue, &xMessage, pxHigherPriorityTaskWoken );
 2515              		.loc 1 1062 13
 2516 0020 064B     		ldr	r3, .L151
 2517 0022 1868     		ldr	r0, [r3]
 2518 0024 07F11401 		add	r1, r7, #20
 2519 0028 0023     		movs	r3, #0
 2520 002a 3A68     		ldr	r2, [r7]
 2521 002c FFF7FEFF 		bl	xQueueGenericSendFromISR
 2522 0030 7862     		str	r0, [r7, #36]
1063:Middlewares/Third_Party/FreeRTOS/Source/timers.c **** 
1064:Middlewares/Third_Party/FreeRTOS/Source/timers.c **** 		tracePEND_FUNC_CALL_FROM_ISR( xFunctionToPend, pvParameter1, ulParameter2, xReturn );
1065:Middlewares/Third_Party/FreeRTOS/Source/timers.c **** 
1066:Middlewares/Third_Party/FreeRTOS/Source/timers.c **** 		return xReturn;
 2523              		.loc 1 1066 10
 2524 0032 7B6A     		ldr	r3, [r7, #36]
1067:Middlewares/Third_Party/FreeRTOS/Source/timers.c **** 	}
 2525              		.loc 1 1067 2
 2526 0034 1846     		mov	r0, r3
 2527 0036 2837     		adds	r7, r7, #40
 2528              	.LCFI120:
 2529              		.cfi_def_cfa_offset 8
 2530 0038 BD46     		mov	sp, r7
 2531              	.LCFI121:
 2532              		.cfi_def_cfa_register 13
 2533              		@ sp needed
 2534 003a 80BD     		pop	{r7, pc}
 2535              	.L152:
 2536              		.align	2
 2537              	.L151:
 2538 003c 00000000 		.word	xTimerQueue
 2539              		.cfi_endproc
 2540              	.LFE27:
 2542              		.section	.text.xTimerPendFunctionCall,"ax",%progbits
 2543              		.align	1
 2544              		.global	xTimerPendFunctionCall
 2545              		.syntax unified
 2546              		.thumb
 2547              		.thumb_func
 2549              	xTimerPendFunctionCall:
 2550              	.LFB28:
1068:Middlewares/Third_Party/FreeRTOS/Source/timers.c **** 
1069:Middlewares/Third_Party/FreeRTOS/Source/timers.c **** #endif /* INCLUDE_xTimerPendFunctionCall */
1070:Middlewares/Third_Party/FreeRTOS/Source/timers.c **** /*-----------------------------------------------------------*/
1071:Middlewares/Third_Party/FreeRTOS/Source/timers.c **** 
1072:Middlewares/Third_Party/FreeRTOS/Source/timers.c **** #if( INCLUDE_xTimerPendFunctionCall == 1 )
1073:Middlewares/Third_Party/FreeRTOS/Source/timers.c **** 
1074:Middlewares/Third_Party/FreeRTOS/Source/timers.c **** 	BaseType_t xTimerPendFunctionCall( PendedFunction_t xFunctionToPend, void *pvParameter1, uint32_t 
1075:Middlewares/Third_Party/FreeRTOS/Source/timers.c **** 	{
 2551              		.loc 1 1075 2
 2552              		.cfi_startproc
 2553              		@ args = 0, pretend = 0, frame = 40
 2554              		@ frame_needed = 1, uses_anonymous_args = 0
 2555 0000 80B5     		push	{r7, lr}
 2556              	.LCFI122:
 2557              		.cfi_def_cfa_offset 8
 2558              		.cfi_offset 7, -8
 2559              		.cfi_offset 14, -4
ARM GAS  C:\Users\Bunyamin\AppData\Local\Temp\ccFW9f40.s 			page 68


 2560 0002 8AB0     		sub	sp, sp, #40
 2561              	.LCFI123:
 2562              		.cfi_def_cfa_offset 48
 2563 0004 00AF     		add	r7, sp, #0
 2564              	.LCFI124:
 2565              		.cfi_def_cfa_register 7
 2566 0006 F860     		str	r0, [r7, #12]
 2567 0008 B960     		str	r1, [r7, #8]
 2568 000a 7A60     		str	r2, [r7, #4]
 2569 000c 3B60     		str	r3, [r7]
1076:Middlewares/Third_Party/FreeRTOS/Source/timers.c **** 	DaemonTaskMessage_t xMessage;
1077:Middlewares/Third_Party/FreeRTOS/Source/timers.c **** 	BaseType_t xReturn;
1078:Middlewares/Third_Party/FreeRTOS/Source/timers.c **** 
1079:Middlewares/Third_Party/FreeRTOS/Source/timers.c **** 		/* This function can only be called after a timer has been created or
1080:Middlewares/Third_Party/FreeRTOS/Source/timers.c **** 		after the scheduler has been started because, until then, the timer
1081:Middlewares/Third_Party/FreeRTOS/Source/timers.c **** 		queue does not exist. */
1082:Middlewares/Third_Party/FreeRTOS/Source/timers.c **** 		configASSERT( xTimerQueue );
 2570              		.loc 1 1082 3
 2571 000e 134B     		ldr	r3, .L157
 2572 0010 1B68     		ldr	r3, [r3]
 2573 0012 002B     		cmp	r3, #0
 2574 0014 0AD1     		bne	.L154
 2575              	.LBB87:
 2576              	.LBB88:
 195:Middlewares/Third_Party/FreeRTOS/Source/portable/GCC/ARM_CM4F/portmacro.h **** 	(
 2577              		.loc 2 195 2
 2578              		.syntax unified
 2579              	@ 195 "Middlewares/Third_Party/FreeRTOS/Source/portable/GCC/ARM_CM4F/portmacro.h" 1
 2580 0016 4FF05003 			mov r3, #80												
 2581 001a 83F31188 		msr basepri, r3											
 2582 001e BFF36F8F 		isb														
 2583 0022 BFF34F8F 		dsb														
 2584              	
 2585              	@ 0 "" 2
 2586              		.thumb
 2587              		.syntax unified
 2588 0026 3B62     		str	r3, [r7, #32]
 2589              		.loc 2 203 1
 2590 0028 00BF     		nop
 2591              	.L155:
 2592              	.LBE88:
 2593              	.LBE87:
 2594              		.loc 1 1082 3 discriminator 1
 2595 002a FEE7     		b	.L155
 2596              	.L154:
1083:Middlewares/Third_Party/FreeRTOS/Source/timers.c **** 
1084:Middlewares/Third_Party/FreeRTOS/Source/timers.c **** 		/* Complete the message with the function parameters and post it to the
1085:Middlewares/Third_Party/FreeRTOS/Source/timers.c **** 		daemon task. */
1086:Middlewares/Third_Party/FreeRTOS/Source/timers.c **** 		xMessage.xMessageID = tmrCOMMAND_EXECUTE_CALLBACK;
 2597              		.loc 1 1086 23
 2598 002c 4FF0FF33 		mov	r3, #-1
 2599 0030 3B61     		str	r3, [r7, #16]
1087:Middlewares/Third_Party/FreeRTOS/Source/timers.c **** 		xMessage.u.xCallbackParameters.pxCallbackFunction = xFunctionToPend;
 2600              		.loc 1 1087 53
 2601 0032 FB68     		ldr	r3, [r7, #12]
 2602 0034 7B61     		str	r3, [r7, #20]
1088:Middlewares/Third_Party/FreeRTOS/Source/timers.c **** 		xMessage.u.xCallbackParameters.pvParameter1 = pvParameter1;
ARM GAS  C:\Users\Bunyamin\AppData\Local\Temp\ccFW9f40.s 			page 69


 2603              		.loc 1 1088 47
 2604 0036 BB68     		ldr	r3, [r7, #8]
 2605 0038 BB61     		str	r3, [r7, #24]
1089:Middlewares/Third_Party/FreeRTOS/Source/timers.c **** 		xMessage.u.xCallbackParameters.ulParameter2 = ulParameter2;
 2606              		.loc 1 1089 47
 2607 003a 7B68     		ldr	r3, [r7, #4]
 2608 003c FB61     		str	r3, [r7, #28]
1090:Middlewares/Third_Party/FreeRTOS/Source/timers.c **** 
1091:Middlewares/Third_Party/FreeRTOS/Source/timers.c **** 		xReturn = xQueueSendToBack( xTimerQueue, &xMessage, xTicksToWait );
 2609              		.loc 1 1091 13
 2610 003e 074B     		ldr	r3, .L157
 2611 0040 1868     		ldr	r0, [r3]
 2612 0042 07F11001 		add	r1, r7, #16
 2613 0046 0023     		movs	r3, #0
 2614 0048 3A68     		ldr	r2, [r7]
 2615 004a FFF7FEFF 		bl	xQueueGenericSend
 2616 004e 7862     		str	r0, [r7, #36]
1092:Middlewares/Third_Party/FreeRTOS/Source/timers.c **** 
1093:Middlewares/Third_Party/FreeRTOS/Source/timers.c **** 		tracePEND_FUNC_CALL( xFunctionToPend, pvParameter1, ulParameter2, xReturn );
1094:Middlewares/Third_Party/FreeRTOS/Source/timers.c **** 
1095:Middlewares/Third_Party/FreeRTOS/Source/timers.c **** 		return xReturn;
 2617              		.loc 1 1095 10
 2618 0050 7B6A     		ldr	r3, [r7, #36]
1096:Middlewares/Third_Party/FreeRTOS/Source/timers.c **** 	}
 2619              		.loc 1 1096 2
 2620 0052 1846     		mov	r0, r3
 2621 0054 2837     		adds	r7, r7, #40
 2622              	.LCFI125:
 2623              		.cfi_def_cfa_offset 8
 2624 0056 BD46     		mov	sp, r7
 2625              	.LCFI126:
 2626              		.cfi_def_cfa_register 13
 2627              		@ sp needed
 2628 0058 80BD     		pop	{r7, pc}
 2629              	.L158:
 2630 005a 00BF     		.align	2
 2631              	.L157:
 2632 005c 00000000 		.word	xTimerQueue
 2633              		.cfi_endproc
 2634              	.LFE28:
 2636              		.section	.text.uxTimerGetTimerNumber,"ax",%progbits
 2637              		.align	1
 2638              		.global	uxTimerGetTimerNumber
 2639              		.syntax unified
 2640              		.thumb
 2641              		.thumb_func
 2643              	uxTimerGetTimerNumber:
 2644              	.LFB29:
1097:Middlewares/Third_Party/FreeRTOS/Source/timers.c **** 
1098:Middlewares/Third_Party/FreeRTOS/Source/timers.c **** #endif /* INCLUDE_xTimerPendFunctionCall */
1099:Middlewares/Third_Party/FreeRTOS/Source/timers.c **** /*-----------------------------------------------------------*/
1100:Middlewares/Third_Party/FreeRTOS/Source/timers.c **** 
1101:Middlewares/Third_Party/FreeRTOS/Source/timers.c **** #if ( configUSE_TRACE_FACILITY == 1 )
1102:Middlewares/Third_Party/FreeRTOS/Source/timers.c **** 
1103:Middlewares/Third_Party/FreeRTOS/Source/timers.c **** 	UBaseType_t uxTimerGetTimerNumber( TimerHandle_t xTimer )
1104:Middlewares/Third_Party/FreeRTOS/Source/timers.c **** 	{
 2645              		.loc 1 1104 2
ARM GAS  C:\Users\Bunyamin\AppData\Local\Temp\ccFW9f40.s 			page 70


 2646              		.cfi_startproc
 2647              		@ args = 0, pretend = 0, frame = 8
 2648              		@ frame_needed = 1, uses_anonymous_args = 0
 2649              		@ link register save eliminated.
 2650 0000 80B4     		push	{r7}
 2651              	.LCFI127:
 2652              		.cfi_def_cfa_offset 4
 2653              		.cfi_offset 7, -4
 2654 0002 83B0     		sub	sp, sp, #12
 2655              	.LCFI128:
 2656              		.cfi_def_cfa_offset 16
 2657 0004 00AF     		add	r7, sp, #0
 2658              	.LCFI129:
 2659              		.cfi_def_cfa_register 7
 2660 0006 7860     		str	r0, [r7, #4]
1105:Middlewares/Third_Party/FreeRTOS/Source/timers.c **** 		return ( ( Timer_t * ) xTimer )->uxTimerNumber;
 2661              		.loc 1 1105 34
 2662 0008 7B68     		ldr	r3, [r7, #4]
 2663 000a 5B6A     		ldr	r3, [r3, #36]
1106:Middlewares/Third_Party/FreeRTOS/Source/timers.c **** 	}
 2664              		.loc 1 1106 2
 2665 000c 1846     		mov	r0, r3
 2666 000e 0C37     		adds	r7, r7, #12
 2667              	.LCFI130:
 2668              		.cfi_def_cfa_offset 4
 2669 0010 BD46     		mov	sp, r7
 2670              	.LCFI131:
 2671              		.cfi_def_cfa_register 13
 2672              		@ sp needed
 2673 0012 5DF8047B 		ldr	r7, [sp], #4
 2674              	.LCFI132:
 2675              		.cfi_restore 7
 2676              		.cfi_def_cfa_offset 0
 2677 0016 7047     		bx	lr
 2678              		.cfi_endproc
 2679              	.LFE29:
 2681              		.section	.text.vTimerSetTimerNumber,"ax",%progbits
 2682              		.align	1
 2683              		.global	vTimerSetTimerNumber
 2684              		.syntax unified
 2685              		.thumb
 2686              		.thumb_func
 2688              	vTimerSetTimerNumber:
 2689              	.LFB30:
1107:Middlewares/Third_Party/FreeRTOS/Source/timers.c **** 
1108:Middlewares/Third_Party/FreeRTOS/Source/timers.c **** #endif /* configUSE_TRACE_FACILITY */
1109:Middlewares/Third_Party/FreeRTOS/Source/timers.c **** /*-----------------------------------------------------------*/
1110:Middlewares/Third_Party/FreeRTOS/Source/timers.c **** 
1111:Middlewares/Third_Party/FreeRTOS/Source/timers.c **** #if ( configUSE_TRACE_FACILITY == 1 )
1112:Middlewares/Third_Party/FreeRTOS/Source/timers.c **** 
1113:Middlewares/Third_Party/FreeRTOS/Source/timers.c **** 	void vTimerSetTimerNumber( TimerHandle_t xTimer, UBaseType_t uxTimerNumber )
1114:Middlewares/Third_Party/FreeRTOS/Source/timers.c **** 	{
 2690              		.loc 1 1114 2
 2691              		.cfi_startproc
 2692              		@ args = 0, pretend = 0, frame = 8
 2693              		@ frame_needed = 1, uses_anonymous_args = 0
 2694              		@ link register save eliminated.
ARM GAS  C:\Users\Bunyamin\AppData\Local\Temp\ccFW9f40.s 			page 71


 2695 0000 80B4     		push	{r7}
 2696              	.LCFI133:
 2697              		.cfi_def_cfa_offset 4
 2698              		.cfi_offset 7, -4
 2699 0002 83B0     		sub	sp, sp, #12
 2700              	.LCFI134:
 2701              		.cfi_def_cfa_offset 16
 2702 0004 00AF     		add	r7, sp, #0
 2703              	.LCFI135:
 2704              		.cfi_def_cfa_register 7
 2705 0006 7860     		str	r0, [r7, #4]
 2706 0008 3960     		str	r1, [r7]
1115:Middlewares/Third_Party/FreeRTOS/Source/timers.c **** 		( ( Timer_t * ) xTimer )->uxTimerNumber = uxTimerNumber;
 2707              		.loc 1 1115 43
 2708 000a 7B68     		ldr	r3, [r7, #4]
 2709 000c 3A68     		ldr	r2, [r7]
 2710 000e 5A62     		str	r2, [r3, #36]
1116:Middlewares/Third_Party/FreeRTOS/Source/timers.c **** 	}
 2711              		.loc 1 1116 2
 2712 0010 00BF     		nop
 2713 0012 0C37     		adds	r7, r7, #12
 2714              	.LCFI136:
 2715              		.cfi_def_cfa_offset 4
 2716 0014 BD46     		mov	sp, r7
 2717              	.LCFI137:
 2718              		.cfi_def_cfa_register 13
 2719              		@ sp needed
 2720 0016 5DF8047B 		ldr	r7, [sp], #4
 2721              	.LCFI138:
 2722              		.cfi_restore 7
 2723              		.cfi_def_cfa_offset 0
 2724 001a 7047     		bx	lr
 2725              		.cfi_endproc
 2726              	.LFE30:
 2728              		.section	.bss.xLastTime.2,"aw",%nobits
 2729              		.align	2
 2732              	xLastTime.2:
 2733 0000 00000000 		.space	4
 2734              		.section	.bss.ucStaticTimerQueueStorage.1,"aw",%nobits
 2735              		.align	2
 2738              	ucStaticTimerQueueStorage.1:
 2739 0000 00000000 		.space	160
 2739      00000000 
 2739      00000000 
 2739      00000000 
 2739      00000000 
 2740              		.section	.bss.xStaticTimerQueue.0,"aw",%nobits
 2741              		.align	2
 2744              	xStaticTimerQueue.0:
 2745 0000 00000000 		.space	80
 2745      00000000 
 2745      00000000 
 2745      00000000 
 2745      00000000 
 2746              		.text
 2747              	.Letext0:
 2748              		.file 3 "c:\\dev\\tool\\gcc-arm-11.2-2022.02-mingw-w64-i686-arm-none-eabi\\lib\\gcc\\arm-none-eabi
ARM GAS  C:\Users\Bunyamin\AppData\Local\Temp\ccFW9f40.s 			page 72


 2749              		.file 4 "c:\\dev\\tool\\gcc-arm-11.2-2022.02-mingw-w64-i686-arm-none-eabi\\arm-none-eabi\\include\
 2750              		.file 5 "c:\\dev\\tool\\gcc-arm-11.2-2022.02-mingw-w64-i686-arm-none-eabi\\arm-none-eabi\\include\
 2751              		.file 6 "Middlewares/Third_Party/FreeRTOS/Source/include/projdefs.h"
 2752              		.file 7 "Middlewares/Third_Party/FreeRTOS/Source/include/FreeRTOS.h"
 2753              		.file 8 "Middlewares/Third_Party/FreeRTOS/Source/include/list.h"
 2754              		.file 9 "Middlewares/Third_Party/FreeRTOS/Source/include/task.h"
 2755              		.file 10 "Middlewares/Third_Party/FreeRTOS/Source/include/queue.h"
 2756              		.file 11 "Middlewares/Third_Party/FreeRTOS/Source/include/timers.h"
 2757              		.file 12 "Middlewares/Third_Party/FreeRTOS/Source/include/portable.h"
ARM GAS  C:\Users\Bunyamin\AppData\Local\Temp\ccFW9f40.s 			page 73

